
state_machine_timeout.elf:     file format elf32-littlearm

Sections:
Idx Name          Size      VMA       LMA       File off  Algn
  0 .isr_vector   000001a8  08000000  08000000  00010000  2**0
                  CONTENTS, ALLOC, LOAD, READONLY, DATA
  1 .text         00001ff0  080001a8  080001a8  000101a8  2**2
                  CONTENTS, ALLOC, LOAD, READONLY, CODE
  2 .rodata       00000000  08002198  08002198  0002000c  2**0
                  CONTENTS, ALLOC, LOAD, DATA
  3 .ARM.extab    00000000  08002198  08002198  0002000c  2**0
                  CONTENTS
  4 .ARM          00000000  08002198  08002198  0002000c  2**0
                  CONTENTS
  5 .preinit_array 00000000  08002198  08002198  0002000c  2**0
                  CONTENTS, ALLOC, LOAD, DATA
  6 .init_array   00000004  08002198  08002198  00012198  2**2
                  CONTENTS, ALLOC, LOAD, DATA
  7 .fini_array   00000004  0800219c  0800219c  0001219c  2**2
                  CONTENTS, ALLOC, LOAD, DATA
  8 .data         0000000c  20000000  080021a0  00020000  2**2
                  CONTENTS, ALLOC, LOAD, DATA
  9 .ccmram       00000000  10000000  10000000  0002000c  2**0
                  CONTENTS
 10 .bss          0000006c  2000000c  2000000c  0002000c  2**2
                  ALLOC
 11 ._user_heap_stack 00000600  20000078  20000078  0002000c  2**0
                  ALLOC
 12 .ARM.attributes 00000030  00000000  00000000  0002000c  2**0
                  CONTENTS, READONLY
 13 .debug_info   0000af08  00000000  00000000  0002003c  2**0
                  CONTENTS, READONLY, DEBUGGING, OCTETS
 14 .debug_abbrev 00001cd9  00000000  00000000  0002af44  2**0
                  CONTENTS, READONLY, DEBUGGING, OCTETS
 15 .debug_aranges 00000c50  00000000  00000000  0002cc20  2**3
                  CONTENTS, READONLY, DEBUGGING, OCTETS
 16 .debug_ranges 00000b68  00000000  00000000  0002d870  2**3
                  CONTENTS, READONLY, DEBUGGING, OCTETS
 17 .debug_macro  00021ca9  00000000  00000000  0002e3d8  2**0
                  CONTENTS, READONLY, DEBUGGING, OCTETS
 18 .debug_line   0000b8e8  00000000  00000000  00050081  2**0
                  CONTENTS, READONLY, DEBUGGING, OCTETS
 19 .debug_str    000d2277  00000000  00000000  0005b969  2**0
                  CONTENTS, READONLY, DEBUGGING, OCTETS
 20 .comment      00000050  00000000  00000000  0012dbe0  2**0
                  CONTENTS, READONLY
 21 .debug_frame  00003278  00000000  00000000  0012dc30  2**2
                  CONTENTS, READONLY, DEBUGGING, OCTETS

Disassembly of section .text:

080001a8 <__do_global_dtors_aux>:
 80001a8:	b510      	push	{r4, lr}
 80001aa:	4c05      	ldr	r4, [pc, #20]	; (80001c0 <__do_global_dtors_aux+0x18>)
 80001ac:	7823      	ldrb	r3, [r4, #0]
 80001ae:	b933      	cbnz	r3, 80001be <__do_global_dtors_aux+0x16>
 80001b0:	4b04      	ldr	r3, [pc, #16]	; (80001c4 <__do_global_dtors_aux+0x1c>)
 80001b2:	b113      	cbz	r3, 80001ba <__do_global_dtors_aux+0x12>
 80001b4:	4804      	ldr	r0, [pc, #16]	; (80001c8 <__do_global_dtors_aux+0x20>)
 80001b6:	f3af 8000 	nop.w
 80001ba:	2301      	movs	r3, #1
 80001bc:	7023      	strb	r3, [r4, #0]
 80001be:	bd10      	pop	{r4, pc}
 80001c0:	2000000c 	.word	0x2000000c
 80001c4:	00000000 	.word	0x00000000
 80001c8:	08002180 	.word	0x08002180

080001cc <frame_dummy>:
 80001cc:	b508      	push	{r3, lr}
 80001ce:	4b03      	ldr	r3, [pc, #12]	; (80001dc <frame_dummy+0x10>)
 80001d0:	b11b      	cbz	r3, 80001da <frame_dummy+0xe>
 80001d2:	4903      	ldr	r1, [pc, #12]	; (80001e0 <frame_dummy+0x14>)
 80001d4:	4803      	ldr	r0, [pc, #12]	; (80001e4 <frame_dummy+0x18>)
 80001d6:	f3af 8000 	nop.w
 80001da:	bd08      	pop	{r3, pc}
 80001dc:	00000000 	.word	0x00000000
 80001e0:	20000010 	.word	0x20000010
 80001e4:	08002180 	.word	0x08002180

080001e8 <__NVIC_GetPriorityGrouping>:
  \brief   Get Priority Grouping
  \details Reads the priority grouping field from the NVIC Interrupt Controller.
  \return                Priority grouping field (SCB->AIRCR [10:8] PRIGROUP field).
 */
__STATIC_INLINE uint32_t __NVIC_GetPriorityGrouping(void)
{
 80001e8:	b480      	push	{r7}
 80001ea:	af00      	add	r7, sp, #0
  return ((uint32_t)((SCB->AIRCR & SCB_AIRCR_PRIGROUP_Msk) >> SCB_AIRCR_PRIGROUP_Pos));
 80001ec:	4b04      	ldr	r3, [pc, #16]	; (8000200 <__NVIC_GetPriorityGrouping+0x18>)
 80001ee:	68db      	ldr	r3, [r3, #12]
 80001f0:	0a1b      	lsrs	r3, r3, #8
 80001f2:	f003 0307 	and.w	r3, r3, #7
}
 80001f6:	4618      	mov	r0, r3
 80001f8:	46bd      	mov	sp, r7
 80001fa:	f85d 7b04 	ldr.w	r7, [sp], #4
 80001fe:	4770      	bx	lr
 8000200:	e000ed00 	.word	0xe000ed00

08000204 <__NVIC_EnableIRQ>:
  \details Enables a device specific interrupt in the NVIC interrupt controller.
  \param [in]      IRQn  Device specific interrupt number.
  \note    IRQn must not be negative.
 */
__STATIC_INLINE void __NVIC_EnableIRQ(IRQn_Type IRQn)
{
 8000204:	b480      	push	{r7}
 8000206:	b083      	sub	sp, #12
 8000208:	af00      	add	r7, sp, #0
 800020a:	4603      	mov	r3, r0
 800020c:	71fb      	strb	r3, [r7, #7]
  if ((int32_t)(IRQn) >= 0)
 800020e:	f997 3007 	ldrsb.w	r3, [r7, #7]
 8000212:	2b00      	cmp	r3, #0
 8000214:	db0b      	blt.n	800022e <__NVIC_EnableIRQ+0x2a>
  {
    NVIC->ISER[(((uint32_t)IRQn) >> 5UL)] = (uint32_t)(1UL << (((uint32_t)IRQn) & 0x1FUL));
 8000216:	79fb      	ldrb	r3, [r7, #7]
 8000218:	f003 021f 	and.w	r2, r3, #31
 800021c:	4907      	ldr	r1, [pc, #28]	; (800023c <__NVIC_EnableIRQ+0x38>)
 800021e:	f997 3007 	ldrsb.w	r3, [r7, #7]
 8000222:	095b      	lsrs	r3, r3, #5
 8000224:	2001      	movs	r0, #1
 8000226:	fa00 f202 	lsl.w	r2, r0, r2
 800022a:	f841 2023 	str.w	r2, [r1, r3, lsl #2]
  }
}
 800022e:	bf00      	nop
 8000230:	370c      	adds	r7, #12
 8000232:	46bd      	mov	sp, r7
 8000234:	f85d 7b04 	ldr.w	r7, [sp], #4
 8000238:	4770      	bx	lr
 800023a:	bf00      	nop
 800023c:	e000e100 	.word	0xe000e100

08000240 <__NVIC_SetPriority>:
  \param [in]      IRQn  Interrupt number.
  \param [in]  priority  Priority to set.
  \note    The priority cannot be set for every processor exception.
 */
__STATIC_INLINE void __NVIC_SetPriority(IRQn_Type IRQn, uint32_t priority)
{
 8000240:	b480      	push	{r7}
 8000242:	b083      	sub	sp, #12
 8000244:	af00      	add	r7, sp, #0
 8000246:	4603      	mov	r3, r0
 8000248:	6039      	str	r1, [r7, #0]
 800024a:	71fb      	strb	r3, [r7, #7]
  if ((int32_t)(IRQn) >= 0)
 800024c:	f997 3007 	ldrsb.w	r3, [r7, #7]
 8000250:	2b00      	cmp	r3, #0
 8000252:	db0a      	blt.n	800026a <__NVIC_SetPriority+0x2a>
  {
    NVIC->IP[((uint32_t)IRQn)]               = (uint8_t)((priority << (8U - __NVIC_PRIO_BITS)) & (uint32_t)0xFFUL);
 8000254:	683b      	ldr	r3, [r7, #0]
 8000256:	b2da      	uxtb	r2, r3
 8000258:	490c      	ldr	r1, [pc, #48]	; (800028c <__NVIC_SetPriority+0x4c>)
 800025a:	f997 3007 	ldrsb.w	r3, [r7, #7]
 800025e:	0112      	lsls	r2, r2, #4
 8000260:	b2d2      	uxtb	r2, r2
 8000262:	440b      	add	r3, r1
 8000264:	f883 2300 	strb.w	r2, [r3, #768]	; 0x300
  }
  else
  {
    SCB->SHP[(((uint32_t)IRQn) & 0xFUL)-4UL] = (uint8_t)((priority << (8U - __NVIC_PRIO_BITS)) & (uint32_t)0xFFUL);
  }
}
 8000268:	e00a      	b.n	8000280 <__NVIC_SetPriority+0x40>
    SCB->SHP[(((uint32_t)IRQn) & 0xFUL)-4UL] = (uint8_t)((priority << (8U - __NVIC_PRIO_BITS)) & (uint32_t)0xFFUL);
 800026a:	683b      	ldr	r3, [r7, #0]
 800026c:	b2da      	uxtb	r2, r3
 800026e:	4908      	ldr	r1, [pc, #32]	; (8000290 <__NVIC_SetPriority+0x50>)
 8000270:	79fb      	ldrb	r3, [r7, #7]
 8000272:	f003 030f 	and.w	r3, r3, #15
 8000276:	3b04      	subs	r3, #4
 8000278:	0112      	lsls	r2, r2, #4
 800027a:	b2d2      	uxtb	r2, r2
 800027c:	440b      	add	r3, r1
 800027e:	761a      	strb	r2, [r3, #24]
}
 8000280:	bf00      	nop
 8000282:	370c      	adds	r7, #12
 8000284:	46bd      	mov	sp, r7
 8000286:	f85d 7b04 	ldr.w	r7, [sp], #4
 800028a:	4770      	bx	lr
 800028c:	e000e100 	.word	0xe000e100
 8000290:	e000ed00 	.word	0xe000ed00

08000294 <NVIC_EncodePriority>:
  \param [in]   PreemptPriority  Preemptive priority value (starting from 0).
  \param [in]       SubPriority  Subpriority value (starting from 0).
  \return                        Encoded priority. Value can be used in the function \ref NVIC_SetPriority().
 */
__STATIC_INLINE uint32_t NVIC_EncodePriority (uint32_t PriorityGroup, uint32_t PreemptPriority, uint32_t SubPriority)
{
 8000294:	b480      	push	{r7}
 8000296:	b089      	sub	sp, #36	; 0x24
 8000298:	af00      	add	r7, sp, #0
 800029a:	60f8      	str	r0, [r7, #12]
 800029c:	60b9      	str	r1, [r7, #8]
 800029e:	607a      	str	r2, [r7, #4]
  uint32_t PriorityGroupTmp = (PriorityGroup & (uint32_t)0x07UL);   /* only values 0..7 are used          */
 80002a0:	68fb      	ldr	r3, [r7, #12]
 80002a2:	f003 0307 	and.w	r3, r3, #7
 80002a6:	61fb      	str	r3, [r7, #28]
  uint32_t PreemptPriorityBits;
  uint32_t SubPriorityBits;

  PreemptPriorityBits = ((7UL - PriorityGroupTmp) > (uint32_t)(__NVIC_PRIO_BITS)) ? (uint32_t)(__NVIC_PRIO_BITS) : (uint32_t)(7UL - PriorityGroupTmp);
 80002a8:	69fb      	ldr	r3, [r7, #28]
 80002aa:	f1c3 0307 	rsb	r3, r3, #7
 80002ae:	2b04      	cmp	r3, #4
 80002b0:	bf28      	it	cs
 80002b2:	2304      	movcs	r3, #4
 80002b4:	61bb      	str	r3, [r7, #24]
  SubPriorityBits     = ((PriorityGroupTmp + (uint32_t)(__NVIC_PRIO_BITS)) < (uint32_t)7UL) ? (uint32_t)0UL : (uint32_t)((PriorityGroupTmp - 7UL) + (uint32_t)(__NVIC_PRIO_BITS));
 80002b6:	69fb      	ldr	r3, [r7, #28]
 80002b8:	3304      	adds	r3, #4
 80002ba:	2b06      	cmp	r3, #6
 80002bc:	d902      	bls.n	80002c4 <NVIC_EncodePriority+0x30>
 80002be:	69fb      	ldr	r3, [r7, #28]
 80002c0:	3b03      	subs	r3, #3
 80002c2:	e000      	b.n	80002c6 <NVIC_EncodePriority+0x32>
 80002c4:	2300      	movs	r3, #0
 80002c6:	617b      	str	r3, [r7, #20]

  return (
           ((PreemptPriority & (uint32_t)((1UL << (PreemptPriorityBits)) - 1UL)) << SubPriorityBits) |
 80002c8:	f04f 32ff 	mov.w	r2, #4294967295
 80002cc:	69bb      	ldr	r3, [r7, #24]
 80002ce:	fa02 f303 	lsl.w	r3, r2, r3
 80002d2:	43da      	mvns	r2, r3
 80002d4:	68bb      	ldr	r3, [r7, #8]
 80002d6:	401a      	ands	r2, r3
 80002d8:	697b      	ldr	r3, [r7, #20]
 80002da:	409a      	lsls	r2, r3
           ((SubPriority     & (uint32_t)((1UL << (SubPriorityBits    )) - 1UL)))
 80002dc:	f04f 31ff 	mov.w	r1, #4294967295
 80002e0:	697b      	ldr	r3, [r7, #20]
 80002e2:	fa01 f303 	lsl.w	r3, r1, r3
 80002e6:	43d9      	mvns	r1, r3
 80002e8:	687b      	ldr	r3, [r7, #4]
 80002ea:	400b      	ands	r3, r1
           ((PreemptPriority & (uint32_t)((1UL << (PreemptPriorityBits)) - 1UL)) << SubPriorityBits) |
 80002ec:	4313      	orrs	r3, r2
         );
}
 80002ee:	4618      	mov	r0, r3
 80002f0:	3724      	adds	r7, #36	; 0x24
 80002f2:	46bd      	mov	sp, r7
 80002f4:	f85d 7b04 	ldr.w	r7, [sp], #4
 80002f8:	4770      	bx	lr
	...

080002fc <LL_AHB1_GRP1_EnableClock>:
  *
  *         (*) value not defined in all devices.
  * @retval None
*/
__STATIC_INLINE void LL_AHB1_GRP1_EnableClock(uint32_t Periphs)
{
 80002fc:	b480      	push	{r7}
 80002fe:	b085      	sub	sp, #20
 8000300:	af00      	add	r7, sp, #0
 8000302:	6078      	str	r0, [r7, #4]
  __IO uint32_t tmpreg;
  SET_BIT(RCC->AHB1ENR, Periphs);
 8000304:	4b08      	ldr	r3, [pc, #32]	; (8000328 <LL_AHB1_GRP1_EnableClock+0x2c>)
 8000306:	6b1a      	ldr	r2, [r3, #48]	; 0x30
 8000308:	4907      	ldr	r1, [pc, #28]	; (8000328 <LL_AHB1_GRP1_EnableClock+0x2c>)
 800030a:	687b      	ldr	r3, [r7, #4]
 800030c:	4313      	orrs	r3, r2
 800030e:	630b      	str	r3, [r1, #48]	; 0x30
  /* Delay after an RCC peripheral clock enabling */
  tmpreg = READ_BIT(RCC->AHB1ENR, Periphs);
 8000310:	4b05      	ldr	r3, [pc, #20]	; (8000328 <LL_AHB1_GRP1_EnableClock+0x2c>)
 8000312:	6b1a      	ldr	r2, [r3, #48]	; 0x30
 8000314:	687b      	ldr	r3, [r7, #4]
 8000316:	4013      	ands	r3, r2
 8000318:	60fb      	str	r3, [r7, #12]
  (void)tmpreg;
 800031a:	68fb      	ldr	r3, [r7, #12]
}
 800031c:	bf00      	nop
 800031e:	3714      	adds	r7, #20
 8000320:	46bd      	mov	sp, r7
 8000322:	f85d 7b04 	ldr.w	r7, [sp], #4
 8000326:	4770      	bx	lr
 8000328:	40023800 	.word	0x40023800

0800032c <LL_SYSCFG_SetEXTISource>:
  *         @arg @ref LL_SYSCFG_EXTI_LINE14
  *         @arg @ref LL_SYSCFG_EXTI_LINE15
  * @retval None
  */
__STATIC_INLINE void LL_SYSCFG_SetEXTISource(uint32_t Port, uint32_t Line)
{
 800032c:	b480      	push	{r7}
 800032e:	b085      	sub	sp, #20
 8000330:	af00      	add	r7, sp, #0
 8000332:	6078      	str	r0, [r7, #4]
 8000334:	6039      	str	r1, [r7, #0]
  MODIFY_REG(SYSCFG->EXTICR[Line & 0xFF], (Line >> 16), Port << POSITION_VAL((Line >> 16)));
 8000336:	4a13      	ldr	r2, [pc, #76]	; (8000384 <LL_SYSCFG_SetEXTISource+0x58>)
 8000338:	683b      	ldr	r3, [r7, #0]
 800033a:	b2db      	uxtb	r3, r3
 800033c:	3302      	adds	r3, #2
 800033e:	f852 2023 	ldr.w	r2, [r2, r3, lsl #2]
 8000342:	683b      	ldr	r3, [r7, #0]
 8000344:	0c1b      	lsrs	r3, r3, #16
 8000346:	43db      	mvns	r3, r3
 8000348:	ea02 0103 	and.w	r1, r2, r3
 800034c:	683b      	ldr	r3, [r7, #0]
 800034e:	0c1b      	lsrs	r3, r3, #16
 8000350:	60fb      	str	r3, [r7, #12]
  uint32_t result;

#if ((defined (__ARM_ARCH_7M__      ) && (__ARM_ARCH_7M__      == 1)) || \
     (defined (__ARM_ARCH_7EM__     ) && (__ARM_ARCH_7EM__     == 1)) || \
     (defined (__ARM_ARCH_8M_MAIN__ ) && (__ARM_ARCH_8M_MAIN__ == 1))    )
   __ASM volatile ("rbit %0, %1" : "=r" (result) : "r" (value) );
 8000352:	68fb      	ldr	r3, [r7, #12]
 8000354:	fa93 f3a3 	rbit	r3, r3
 8000358:	60bb      	str	r3, [r7, #8]
    result |= value & 1U;
    s--;
  }
  result <<= s;                        /* shift when v's highest bits are zero */
#endif
  return result;
 800035a:	68bb      	ldr	r3, [r7, #8]
 800035c:	fab3 f383 	clz	r3, r3
 8000360:	b2db      	uxtb	r3, r3
 8000362:	461a      	mov	r2, r3
 8000364:	687b      	ldr	r3, [r7, #4]
 8000366:	fa03 f202 	lsl.w	r2, r3, r2
 800036a:	4806      	ldr	r0, [pc, #24]	; (8000384 <LL_SYSCFG_SetEXTISource+0x58>)
 800036c:	683b      	ldr	r3, [r7, #0]
 800036e:	b2db      	uxtb	r3, r3
 8000370:	430a      	orrs	r2, r1
 8000372:	3302      	adds	r3, #2
 8000374:	f840 2023 	str.w	r2, [r0, r3, lsl #2]
}
 8000378:	bf00      	nop
 800037a:	3714      	adds	r7, #20
 800037c:	46bd      	mov	sp, r7
 800037e:	f85d 7b04 	ldr.w	r7, [sp], #4
 8000382:	4770      	bx	lr
 8000384:	40013800 	.word	0x40013800

08000388 <LL_GPIO_SetPinMode>:
  *         @arg @ref LL_GPIO_MODE_ALTERNATE
  *         @arg @ref LL_GPIO_MODE_ANALOG
  * @retval None
  */
__STATIC_INLINE void LL_GPIO_SetPinMode(GPIO_TypeDef *GPIOx, uint32_t Pin, uint32_t Mode)
{
 8000388:	b480      	push	{r7}
 800038a:	b089      	sub	sp, #36	; 0x24
 800038c:	af00      	add	r7, sp, #0
 800038e:	60f8      	str	r0, [r7, #12]
 8000390:	60b9      	str	r1, [r7, #8]
 8000392:	607a      	str	r2, [r7, #4]
  MODIFY_REG(GPIOx->MODER, (GPIO_MODER_MODER0 << (POSITION_VAL(Pin) * 2U)), (Mode << (POSITION_VAL(Pin) * 2U)));
 8000394:	68fb      	ldr	r3, [r7, #12]
 8000396:	681a      	ldr	r2, [r3, #0]
 8000398:	68bb      	ldr	r3, [r7, #8]
 800039a:	617b      	str	r3, [r7, #20]
   __ASM volatile ("rbit %0, %1" : "=r" (result) : "r" (value) );
 800039c:	697b      	ldr	r3, [r7, #20]
 800039e:	fa93 f3a3 	rbit	r3, r3
 80003a2:	613b      	str	r3, [r7, #16]
  return result;
 80003a4:	693b      	ldr	r3, [r7, #16]
 80003a6:	fab3 f383 	clz	r3, r3
 80003aa:	b2db      	uxtb	r3, r3
 80003ac:	005b      	lsls	r3, r3, #1
 80003ae:	2103      	movs	r1, #3
 80003b0:	fa01 f303 	lsl.w	r3, r1, r3
 80003b4:	43db      	mvns	r3, r3
 80003b6:	401a      	ands	r2, r3
 80003b8:	68bb      	ldr	r3, [r7, #8]
 80003ba:	61fb      	str	r3, [r7, #28]
   __ASM volatile ("rbit %0, %1" : "=r" (result) : "r" (value) );
 80003bc:	69fb      	ldr	r3, [r7, #28]
 80003be:	fa93 f3a3 	rbit	r3, r3
 80003c2:	61bb      	str	r3, [r7, #24]
  return result;
 80003c4:	69bb      	ldr	r3, [r7, #24]
 80003c6:	fab3 f383 	clz	r3, r3
 80003ca:	b2db      	uxtb	r3, r3
 80003cc:	005b      	lsls	r3, r3, #1
 80003ce:	6879      	ldr	r1, [r7, #4]
 80003d0:	fa01 f303 	lsl.w	r3, r1, r3
 80003d4:	431a      	orrs	r2, r3
 80003d6:	68fb      	ldr	r3, [r7, #12]
 80003d8:	601a      	str	r2, [r3, #0]
}
 80003da:	bf00      	nop
 80003dc:	3724      	adds	r7, #36	; 0x24
 80003de:	46bd      	mov	sp, r7
 80003e0:	f85d 7b04 	ldr.w	r7, [sp], #4
 80003e4:	4770      	bx	lr

080003e6 <LL_GPIO_SetPinPull>:
  *         @arg @ref LL_GPIO_PULL_UP
  *         @arg @ref LL_GPIO_PULL_DOWN
  * @retval None
  */
__STATIC_INLINE void LL_GPIO_SetPinPull(GPIO_TypeDef *GPIOx, uint32_t Pin, uint32_t Pull)
{
 80003e6:	b480      	push	{r7}
 80003e8:	b089      	sub	sp, #36	; 0x24
 80003ea:	af00      	add	r7, sp, #0
 80003ec:	60f8      	str	r0, [r7, #12]
 80003ee:	60b9      	str	r1, [r7, #8]
 80003f0:	607a      	str	r2, [r7, #4]
  MODIFY_REG(GPIOx->PUPDR, (GPIO_PUPDR_PUPDR0 << (POSITION_VAL(Pin) * 2U)), (Pull << (POSITION_VAL(Pin) * 2U)));
 80003f2:	68fb      	ldr	r3, [r7, #12]
 80003f4:	68da      	ldr	r2, [r3, #12]
 80003f6:	68bb      	ldr	r3, [r7, #8]
 80003f8:	617b      	str	r3, [r7, #20]
   __ASM volatile ("rbit %0, %1" : "=r" (result) : "r" (value) );
 80003fa:	697b      	ldr	r3, [r7, #20]
 80003fc:	fa93 f3a3 	rbit	r3, r3
 8000400:	613b      	str	r3, [r7, #16]
  return result;
 8000402:	693b      	ldr	r3, [r7, #16]
 8000404:	fab3 f383 	clz	r3, r3
 8000408:	b2db      	uxtb	r3, r3
 800040a:	005b      	lsls	r3, r3, #1
 800040c:	2103      	movs	r1, #3
 800040e:	fa01 f303 	lsl.w	r3, r1, r3
 8000412:	43db      	mvns	r3, r3
 8000414:	401a      	ands	r2, r3
 8000416:	68bb      	ldr	r3, [r7, #8]
 8000418:	61fb      	str	r3, [r7, #28]
   __ASM volatile ("rbit %0, %1" : "=r" (result) : "r" (value) );
 800041a:	69fb      	ldr	r3, [r7, #28]
 800041c:	fa93 f3a3 	rbit	r3, r3
 8000420:	61bb      	str	r3, [r7, #24]
  return result;
 8000422:	69bb      	ldr	r3, [r7, #24]
 8000424:	fab3 f383 	clz	r3, r3
 8000428:	b2db      	uxtb	r3, r3
 800042a:	005b      	lsls	r3, r3, #1
 800042c:	6879      	ldr	r1, [r7, #4]
 800042e:	fa01 f303 	lsl.w	r3, r1, r3
 8000432:	431a      	orrs	r2, r3
 8000434:	68fb      	ldr	r3, [r7, #12]
 8000436:	60da      	str	r2, [r3, #12]
}
 8000438:	bf00      	nop
 800043a:	3724      	adds	r7, #36	; 0x24
 800043c:	46bd      	mov	sp, r7
 800043e:	f85d 7b04 	ldr.w	r7, [sp], #4
 8000442:	4770      	bx	lr

08000444 <LL_GPIO_ResetOutputPin>:
  *         @arg @ref LL_GPIO_PIN_15
  *         @arg @ref LL_GPIO_PIN_ALL
  * @retval None
  */
__STATIC_INLINE void LL_GPIO_ResetOutputPin(GPIO_TypeDef *GPIOx, uint32_t PinMask)
{
 8000444:	b480      	push	{r7}
 8000446:	b083      	sub	sp, #12
 8000448:	af00      	add	r7, sp, #0
 800044a:	6078      	str	r0, [r7, #4]
 800044c:	6039      	str	r1, [r7, #0]
  WRITE_REG(GPIOx->BSRR, (PinMask << 16));
 800044e:	683b      	ldr	r3, [r7, #0]
 8000450:	041a      	lsls	r2, r3, #16
 8000452:	687b      	ldr	r3, [r7, #4]
 8000454:	619a      	str	r2, [r3, #24]
}
 8000456:	bf00      	nop
 8000458:	370c      	adds	r7, #12
 800045a:	46bd      	mov	sp, r7
 800045c:	f85d 7b04 	ldr.w	r7, [sp], #4
 8000460:	4770      	bx	lr
	...

08000464 <MX_GPIO_Init>:
        * Output
        * EVENT_OUT
        * EXTI
*/
void MX_GPIO_Init(void)
{
 8000464:	b580      	push	{r7, lr}
 8000466:	b088      	sub	sp, #32
 8000468:	af00      	add	r7, sp, #0
  LL_EXTI_InitTypeDef EXTI_InitStruct = {0};
 800046a:	f107 0318 	add.w	r3, r7, #24
 800046e:	2200      	movs	r2, #0
 8000470:	601a      	str	r2, [r3, #0]
 8000472:	605a      	str	r2, [r3, #4]
  LL_GPIO_InitTypeDef GPIO_InitStruct = {0};
 8000474:	463b      	mov	r3, r7
 8000476:	2200      	movs	r2, #0
 8000478:	601a      	str	r2, [r3, #0]
 800047a:	605a      	str	r2, [r3, #4]
 800047c:	609a      	str	r2, [r3, #8]
 800047e:	60da      	str	r2, [r3, #12]
 8000480:	611a      	str	r2, [r3, #16]
 8000482:	615a      	str	r2, [r3, #20]

  /* GPIO Ports Clock Enable */
  LL_AHB1_GRP1_EnableClock(LL_AHB1_GRP1_PERIPH_GPIOH);
 8000484:	2080      	movs	r0, #128	; 0x80
 8000486:	f7ff ff39 	bl	80002fc <LL_AHB1_GRP1_EnableClock>
  LL_AHB1_GRP1_EnableClock(LL_AHB1_GRP1_PERIPH_GPIOD);
 800048a:	2008      	movs	r0, #8
 800048c:	f7ff ff36 	bl	80002fc <LL_AHB1_GRP1_EnableClock>
  LL_AHB1_GRP1_EnableClock(LL_AHB1_GRP1_PERIPH_GPIOA);
 8000490:	2001      	movs	r0, #1
 8000492:	f7ff ff33 	bl	80002fc <LL_AHB1_GRP1_EnableClock>

  /**/
  LL_GPIO_ResetOutputPin(GPIOD, LL_GPIO_PIN_12|LL_GPIO_PIN_13|LL_GPIO_PIN_14|LL_GPIO_PIN_15);
 8000496:	f44f 4170 	mov.w	r1, #61440	; 0xf000
 800049a:	4821      	ldr	r0, [pc, #132]	; (8000520 <MX_GPIO_Init+0xbc>)
 800049c:	f7ff ffd2 	bl	8000444 <LL_GPIO_ResetOutputPin>

  /**/
  LL_SYSCFG_SetEXTISource(LL_SYSCFG_EXTI_PORTA, LL_SYSCFG_EXTI_LINE0);
 80004a0:	f44f 2170 	mov.w	r1, #983040	; 0xf0000
 80004a4:	2000      	movs	r0, #0
 80004a6:	f7ff ff41 	bl	800032c <LL_SYSCFG_SetEXTISource>

  /**/
  EXTI_InitStruct.Line_0_31 = LL_EXTI_LINE_0;
 80004aa:	2301      	movs	r3, #1
 80004ac:	61bb      	str	r3, [r7, #24]
  EXTI_InitStruct.LineCommand = ENABLE;
 80004ae:	2301      	movs	r3, #1
 80004b0:	773b      	strb	r3, [r7, #28]
  EXTI_InitStruct.Mode = LL_EXTI_MODE_IT;
 80004b2:	2300      	movs	r3, #0
 80004b4:	777b      	strb	r3, [r7, #29]
  EXTI_InitStruct.Trigger = LL_EXTI_TRIGGER_RISING;
 80004b6:	2301      	movs	r3, #1
 80004b8:	77bb      	strb	r3, [r7, #30]
  LL_EXTI_Init(&EXTI_InitStruct);
 80004ba:	f107 0318 	add.w	r3, r7, #24
 80004be:	4618      	mov	r0, r3
 80004c0:	f001 faec 	bl	8001a9c <LL_EXTI_Init>

  /**/
  LL_GPIO_SetPinPull(GPIOA, LL_GPIO_PIN_0, LL_GPIO_PULL_NO);
 80004c4:	2200      	movs	r2, #0
 80004c6:	2101      	movs	r1, #1
 80004c8:	4816      	ldr	r0, [pc, #88]	; (8000524 <MX_GPIO_Init+0xc0>)
 80004ca:	f7ff ff8c 	bl	80003e6 <LL_GPIO_SetPinPull>

  /**/
  LL_GPIO_SetPinMode(GPIOA, LL_GPIO_PIN_0, LL_GPIO_MODE_INPUT);
 80004ce:	2200      	movs	r2, #0
 80004d0:	2101      	movs	r1, #1
 80004d2:	4814      	ldr	r0, [pc, #80]	; (8000524 <MX_GPIO_Init+0xc0>)
 80004d4:	f7ff ff58 	bl	8000388 <LL_GPIO_SetPinMode>

  /**/
  GPIO_InitStruct.Pin = LL_GPIO_PIN_12|LL_GPIO_PIN_13|LL_GPIO_PIN_14|LL_GPIO_PIN_15;
 80004d8:	f44f 4370 	mov.w	r3, #61440	; 0xf000
 80004dc:	603b      	str	r3, [r7, #0]
  GPIO_InitStruct.Mode = LL_GPIO_MODE_OUTPUT;
 80004de:	2301      	movs	r3, #1
 80004e0:	607b      	str	r3, [r7, #4]
  GPIO_InitStruct.Speed = LL_GPIO_SPEED_FREQ_LOW;
 80004e2:	2300      	movs	r3, #0
 80004e4:	60bb      	str	r3, [r7, #8]
  GPIO_InitStruct.OutputType = LL_GPIO_OUTPUT_PUSHPULL;
 80004e6:	2300      	movs	r3, #0
 80004e8:	60fb      	str	r3, [r7, #12]
  GPIO_InitStruct.Pull = LL_GPIO_PULL_NO;
 80004ea:	2300      	movs	r3, #0
 80004ec:	613b      	str	r3, [r7, #16]
  LL_GPIO_Init(GPIOD, &GPIO_InitStruct);
 80004ee:	463b      	mov	r3, r7
 80004f0:	4619      	mov	r1, r3
 80004f2:	480b      	ldr	r0, [pc, #44]	; (8000520 <MX_GPIO_Init+0xbc>)
 80004f4:	f001 fc58 	bl	8001da8 <LL_GPIO_Init>

  /* EXTI interrupt init*/
  NVIC_SetPriority(EXTI0_IRQn, NVIC_EncodePriority(NVIC_GetPriorityGrouping(),0, 0));
 80004f8:	f7ff fe76 	bl	80001e8 <__NVIC_GetPriorityGrouping>
 80004fc:	4603      	mov	r3, r0
 80004fe:	2200      	movs	r2, #0
 8000500:	2100      	movs	r1, #0
 8000502:	4618      	mov	r0, r3
 8000504:	f7ff fec6 	bl	8000294 <NVIC_EncodePriority>
 8000508:	4603      	mov	r3, r0
 800050a:	4619      	mov	r1, r3
 800050c:	2006      	movs	r0, #6
 800050e:	f7ff fe97 	bl	8000240 <__NVIC_SetPriority>
  NVIC_EnableIRQ(EXTI0_IRQn);
 8000512:	2006      	movs	r0, #6
 8000514:	f7ff fe76 	bl	8000204 <__NVIC_EnableIRQ>
}
 8000518:	bf00      	nop
 800051a:	3720      	adds	r7, #32
 800051c:	46bd      	mov	sp, r7
 800051e:	bd80      	pop	{r7, pc}
 8000520:	40020c00 	.word	0x40020c00
 8000524:	40020000 	.word	0x40020000

08000528 <__NVIC_SetPriorityGrouping>:
{
 8000528:	b480      	push	{r7}
 800052a:	b085      	sub	sp, #20
 800052c:	af00      	add	r7, sp, #0
 800052e:	6078      	str	r0, [r7, #4]
  uint32_t PriorityGroupTmp = (PriorityGroup & (uint32_t)0x07UL);             /* only values 0..7 are used          */
 8000530:	687b      	ldr	r3, [r7, #4]
 8000532:	f003 0307 	and.w	r3, r3, #7
 8000536:	60fb      	str	r3, [r7, #12]
  reg_value  =  SCB->AIRCR;                                                   /* read old register configuration    */
 8000538:	4b0c      	ldr	r3, [pc, #48]	; (800056c <__NVIC_SetPriorityGrouping+0x44>)
 800053a:	68db      	ldr	r3, [r3, #12]
 800053c:	60bb      	str	r3, [r7, #8]
  reg_value &= ~((uint32_t)(SCB_AIRCR_VECTKEY_Msk | SCB_AIRCR_PRIGROUP_Msk)); /* clear bits to change               */
 800053e:	68ba      	ldr	r2, [r7, #8]
 8000540:	f64f 03ff 	movw	r3, #63743	; 0xf8ff
 8000544:	4013      	ands	r3, r2
 8000546:	60bb      	str	r3, [r7, #8]
                (PriorityGroupTmp << SCB_AIRCR_PRIGROUP_Pos)  );              /* Insert write key and priority group */
 8000548:	68fb      	ldr	r3, [r7, #12]
 800054a:	021a      	lsls	r2, r3, #8
                ((uint32_t)0x5FAUL << SCB_AIRCR_VECTKEY_Pos) |
 800054c:	68bb      	ldr	r3, [r7, #8]
 800054e:	4313      	orrs	r3, r2
  reg_value  =  (reg_value                                   |
 8000550:	f043 63bf 	orr.w	r3, r3, #100139008	; 0x5f80000
 8000554:	f443 3300 	orr.w	r3, r3, #131072	; 0x20000
 8000558:	60bb      	str	r3, [r7, #8]
  SCB->AIRCR =  reg_value;
 800055a:	4a04      	ldr	r2, [pc, #16]	; (800056c <__NVIC_SetPriorityGrouping+0x44>)
 800055c:	68bb      	ldr	r3, [r7, #8]
 800055e:	60d3      	str	r3, [r2, #12]
}
 8000560:	bf00      	nop
 8000562:	3714      	adds	r7, #20
 8000564:	46bd      	mov	sp, r7
 8000566:	f85d 7b04 	ldr.w	r7, [sp], #4
 800056a:	4770      	bx	lr
 800056c:	e000ed00 	.word	0xe000ed00

08000570 <__NVIC_GetPriorityGrouping>:
{
 8000570:	b480      	push	{r7}
 8000572:	af00      	add	r7, sp, #0
  return ((uint32_t)((SCB->AIRCR & SCB_AIRCR_PRIGROUP_Msk) >> SCB_AIRCR_PRIGROUP_Pos));
 8000574:	4b04      	ldr	r3, [pc, #16]	; (8000588 <__NVIC_GetPriorityGrouping+0x18>)
 8000576:	68db      	ldr	r3, [r3, #12]
 8000578:	0a1b      	lsrs	r3, r3, #8
 800057a:	f003 0307 	and.w	r3, r3, #7
}
 800057e:	4618      	mov	r0, r3
 8000580:	46bd      	mov	sp, r7
 8000582:	f85d 7b04 	ldr.w	r7, [sp], #4
 8000586:	4770      	bx	lr
 8000588:	e000ed00 	.word	0xe000ed00

0800058c <__NVIC_SetPriority>:
{
 800058c:	b480      	push	{r7}
 800058e:	b083      	sub	sp, #12
 8000590:	af00      	add	r7, sp, #0
 8000592:	4603      	mov	r3, r0
 8000594:	6039      	str	r1, [r7, #0]
 8000596:	71fb      	strb	r3, [r7, #7]
  if ((int32_t)(IRQn) >= 0)
 8000598:	f997 3007 	ldrsb.w	r3, [r7, #7]
 800059c:	2b00      	cmp	r3, #0
 800059e:	db0a      	blt.n	80005b6 <__NVIC_SetPriority+0x2a>
    NVIC->IP[((uint32_t)IRQn)]               = (uint8_t)((priority << (8U - __NVIC_PRIO_BITS)) & (uint32_t)0xFFUL);
 80005a0:	683b      	ldr	r3, [r7, #0]
 80005a2:	b2da      	uxtb	r2, r3
 80005a4:	490c      	ldr	r1, [pc, #48]	; (80005d8 <__NVIC_SetPriority+0x4c>)
 80005a6:	f997 3007 	ldrsb.w	r3, [r7, #7]
 80005aa:	0112      	lsls	r2, r2, #4
 80005ac:	b2d2      	uxtb	r2, r2
 80005ae:	440b      	add	r3, r1
 80005b0:	f883 2300 	strb.w	r2, [r3, #768]	; 0x300
}
 80005b4:	e00a      	b.n	80005cc <__NVIC_SetPriority+0x40>
    SCB->SHP[(((uint32_t)IRQn) & 0xFUL)-4UL] = (uint8_t)((priority << (8U - __NVIC_PRIO_BITS)) & (uint32_t)0xFFUL);
 80005b6:	683b      	ldr	r3, [r7, #0]
 80005b8:	b2da      	uxtb	r2, r3
 80005ba:	4908      	ldr	r1, [pc, #32]	; (80005dc <__NVIC_SetPriority+0x50>)
 80005bc:	79fb      	ldrb	r3, [r7, #7]
 80005be:	f003 030f 	and.w	r3, r3, #15
 80005c2:	3b04      	subs	r3, #4
 80005c4:	0112      	lsls	r2, r2, #4
 80005c6:	b2d2      	uxtb	r2, r2
 80005c8:	440b      	add	r3, r1
 80005ca:	761a      	strb	r2, [r3, #24]
}
 80005cc:	bf00      	nop
 80005ce:	370c      	adds	r7, #12
 80005d0:	46bd      	mov	sp, r7
 80005d2:	f85d 7b04 	ldr.w	r7, [sp], #4
 80005d6:	4770      	bx	lr
 80005d8:	e000e100 	.word	0xe000e100
 80005dc:	e000ed00 	.word	0xe000ed00

080005e0 <NVIC_EncodePriority>:
{
 80005e0:	b480      	push	{r7}
 80005e2:	b089      	sub	sp, #36	; 0x24
 80005e4:	af00      	add	r7, sp, #0
 80005e6:	60f8      	str	r0, [r7, #12]
 80005e8:	60b9      	str	r1, [r7, #8]
 80005ea:	607a      	str	r2, [r7, #4]
  uint32_t PriorityGroupTmp = (PriorityGroup & (uint32_t)0x07UL);   /* only values 0..7 are used          */
 80005ec:	68fb      	ldr	r3, [r7, #12]
 80005ee:	f003 0307 	and.w	r3, r3, #7
 80005f2:	61fb      	str	r3, [r7, #28]
  PreemptPriorityBits = ((7UL - PriorityGroupTmp) > (uint32_t)(__NVIC_PRIO_BITS)) ? (uint32_t)(__NVIC_PRIO_BITS) : (uint32_t)(7UL - PriorityGroupTmp);
 80005f4:	69fb      	ldr	r3, [r7, #28]
 80005f6:	f1c3 0307 	rsb	r3, r3, #7
 80005fa:	2b04      	cmp	r3, #4
 80005fc:	bf28      	it	cs
 80005fe:	2304      	movcs	r3, #4
 8000600:	61bb      	str	r3, [r7, #24]
  SubPriorityBits     = ((PriorityGroupTmp + (uint32_t)(__NVIC_PRIO_BITS)) < (uint32_t)7UL) ? (uint32_t)0UL : (uint32_t)((PriorityGroupTmp - 7UL) + (uint32_t)(__NVIC_PRIO_BITS));
 8000602:	69fb      	ldr	r3, [r7, #28]
 8000604:	3304      	adds	r3, #4
 8000606:	2b06      	cmp	r3, #6
 8000608:	d902      	bls.n	8000610 <NVIC_EncodePriority+0x30>
 800060a:	69fb      	ldr	r3, [r7, #28]
 800060c:	3b03      	subs	r3, #3
 800060e:	e000      	b.n	8000612 <NVIC_EncodePriority+0x32>
 8000610:	2300      	movs	r3, #0
 8000612:	617b      	str	r3, [r7, #20]
           ((PreemptPriority & (uint32_t)((1UL << (PreemptPriorityBits)) - 1UL)) << SubPriorityBits) |
 8000614:	f04f 32ff 	mov.w	r2, #4294967295
 8000618:	69bb      	ldr	r3, [r7, #24]
 800061a:	fa02 f303 	lsl.w	r3, r2, r3
 800061e:	43da      	mvns	r2, r3
 8000620:	68bb      	ldr	r3, [r7, #8]
 8000622:	401a      	ands	r2, r3
 8000624:	697b      	ldr	r3, [r7, #20]
 8000626:	409a      	lsls	r2, r3
           ((SubPriority     & (uint32_t)((1UL << (SubPriorityBits    )) - 1UL)))
 8000628:	f04f 31ff 	mov.w	r1, #4294967295
 800062c:	697b      	ldr	r3, [r7, #20]
 800062e:	fa01 f303 	lsl.w	r3, r1, r3
 8000632:	43d9      	mvns	r1, r3
 8000634:	687b      	ldr	r3, [r7, #4]
 8000636:	400b      	ands	r3, r1
           ((PreemptPriority & (uint32_t)((1UL << (PreemptPriorityBits)) - 1UL)) << SubPriorityBits) |
 8000638:	4313      	orrs	r3, r2
}
 800063a:	4618      	mov	r0, r3
 800063c:	3724      	adds	r7, #36	; 0x24
 800063e:	46bd      	mov	sp, r7
 8000640:	f85d 7b04 	ldr.w	r7, [sp], #4
 8000644:	4770      	bx	lr
	...

08000648 <LL_RCC_HSE_Enable>:
  * @brief  Enable HSE crystal oscillator (HSE ON)
  * @rmtoll CR           HSEON         LL_RCC_HSE_Enable
  * @retval None
  */
__STATIC_INLINE void LL_RCC_HSE_Enable(void)
{
 8000648:	b480      	push	{r7}
 800064a:	af00      	add	r7, sp, #0
  SET_BIT(RCC->CR, RCC_CR_HSEON);
 800064c:	4b05      	ldr	r3, [pc, #20]	; (8000664 <LL_RCC_HSE_Enable+0x1c>)
 800064e:	681b      	ldr	r3, [r3, #0]
 8000650:	4a04      	ldr	r2, [pc, #16]	; (8000664 <LL_RCC_HSE_Enable+0x1c>)
 8000652:	f443 3380 	orr.w	r3, r3, #65536	; 0x10000
 8000656:	6013      	str	r3, [r2, #0]
}
 8000658:	bf00      	nop
 800065a:	46bd      	mov	sp, r7
 800065c:	f85d 7b04 	ldr.w	r7, [sp], #4
 8000660:	4770      	bx	lr
 8000662:	bf00      	nop
 8000664:	40023800 	.word	0x40023800

08000668 <LL_RCC_HSE_IsReady>:
  * @brief  Check if HSE oscillator Ready
  * @rmtoll CR           HSERDY        LL_RCC_HSE_IsReady
  * @retval State of bit (1 or 0).
  */
__STATIC_INLINE uint32_t LL_RCC_HSE_IsReady(void)
{
 8000668:	b480      	push	{r7}
 800066a:	af00      	add	r7, sp, #0
  return (READ_BIT(RCC->CR, RCC_CR_HSERDY) == (RCC_CR_HSERDY));
 800066c:	4b07      	ldr	r3, [pc, #28]	; (800068c <LL_RCC_HSE_IsReady+0x24>)
 800066e:	681b      	ldr	r3, [r3, #0]
 8000670:	f403 3300 	and.w	r3, r3, #131072	; 0x20000
 8000674:	f5b3 3f00 	cmp.w	r3, #131072	; 0x20000
 8000678:	bf0c      	ite	eq
 800067a:	2301      	moveq	r3, #1
 800067c:	2300      	movne	r3, #0
 800067e:	b2db      	uxtb	r3, r3
}
 8000680:	4618      	mov	r0, r3
 8000682:	46bd      	mov	sp, r7
 8000684:	f85d 7b04 	ldr.w	r7, [sp], #4
 8000688:	4770      	bx	lr
 800068a:	bf00      	nop
 800068c:	40023800 	.word	0x40023800

08000690 <LL_RCC_SetSysClkSource>:
  *
  *         (*) value not defined in all devices.
  * @retval None
  */
__STATIC_INLINE void LL_RCC_SetSysClkSource(uint32_t Source)
{
 8000690:	b480      	push	{r7}
 8000692:	b083      	sub	sp, #12
 8000694:	af00      	add	r7, sp, #0
 8000696:	6078      	str	r0, [r7, #4]
  MODIFY_REG(RCC->CFGR, RCC_CFGR_SW, Source);
 8000698:	4b06      	ldr	r3, [pc, #24]	; (80006b4 <LL_RCC_SetSysClkSource+0x24>)
 800069a:	689b      	ldr	r3, [r3, #8]
 800069c:	f023 0203 	bic.w	r2, r3, #3
 80006a0:	4904      	ldr	r1, [pc, #16]	; (80006b4 <LL_RCC_SetSysClkSource+0x24>)
 80006a2:	687b      	ldr	r3, [r7, #4]
 80006a4:	4313      	orrs	r3, r2
 80006a6:	608b      	str	r3, [r1, #8]
}
 80006a8:	bf00      	nop
 80006aa:	370c      	adds	r7, #12
 80006ac:	46bd      	mov	sp, r7
 80006ae:	f85d 7b04 	ldr.w	r7, [sp], #4
 80006b2:	4770      	bx	lr
 80006b4:	40023800 	.word	0x40023800

080006b8 <LL_RCC_GetSysClkSource>:
  *         @arg @ref LL_RCC_SYS_CLKSOURCE_STATUS_PLLR (*)
  *
  *         (*) value not defined in all devices.
  */
__STATIC_INLINE uint32_t LL_RCC_GetSysClkSource(void)
{
 80006b8:	b480      	push	{r7}
 80006ba:	af00      	add	r7, sp, #0
  return (uint32_t)(READ_BIT(RCC->CFGR, RCC_CFGR_SWS));
 80006bc:	4b04      	ldr	r3, [pc, #16]	; (80006d0 <LL_RCC_GetSysClkSource+0x18>)
 80006be:	689b      	ldr	r3, [r3, #8]
 80006c0:	f003 030c 	and.w	r3, r3, #12
}
 80006c4:	4618      	mov	r0, r3
 80006c6:	46bd      	mov	sp, r7
 80006c8:	f85d 7b04 	ldr.w	r7, [sp], #4
 80006cc:	4770      	bx	lr
 80006ce:	bf00      	nop
 80006d0:	40023800 	.word	0x40023800

080006d4 <LL_RCC_SetAHBPrescaler>:
  *         @arg @ref LL_RCC_SYSCLK_DIV_256
  *         @arg @ref LL_RCC_SYSCLK_DIV_512
  * @retval None
  */
__STATIC_INLINE void LL_RCC_SetAHBPrescaler(uint32_t Prescaler)
{
 80006d4:	b480      	push	{r7}
 80006d6:	b083      	sub	sp, #12
 80006d8:	af00      	add	r7, sp, #0
 80006da:	6078      	str	r0, [r7, #4]
  MODIFY_REG(RCC->CFGR, RCC_CFGR_HPRE, Prescaler);
 80006dc:	4b06      	ldr	r3, [pc, #24]	; (80006f8 <LL_RCC_SetAHBPrescaler+0x24>)
 80006de:	689b      	ldr	r3, [r3, #8]
 80006e0:	f023 02f0 	bic.w	r2, r3, #240	; 0xf0
 80006e4:	4904      	ldr	r1, [pc, #16]	; (80006f8 <LL_RCC_SetAHBPrescaler+0x24>)
 80006e6:	687b      	ldr	r3, [r7, #4]
 80006e8:	4313      	orrs	r3, r2
 80006ea:	608b      	str	r3, [r1, #8]
}
 80006ec:	bf00      	nop
 80006ee:	370c      	adds	r7, #12
 80006f0:	46bd      	mov	sp, r7
 80006f2:	f85d 7b04 	ldr.w	r7, [sp], #4
 80006f6:	4770      	bx	lr
 80006f8:	40023800 	.word	0x40023800

080006fc <LL_RCC_SetAPB1Prescaler>:
  *         @arg @ref LL_RCC_APB1_DIV_8
  *         @arg @ref LL_RCC_APB1_DIV_16
  * @retval None
  */
__STATIC_INLINE void LL_RCC_SetAPB1Prescaler(uint32_t Prescaler)
{
 80006fc:	b480      	push	{r7}
 80006fe:	b083      	sub	sp, #12
 8000700:	af00      	add	r7, sp, #0
 8000702:	6078      	str	r0, [r7, #4]
  MODIFY_REG(RCC->CFGR, RCC_CFGR_PPRE1, Prescaler);
 8000704:	4b06      	ldr	r3, [pc, #24]	; (8000720 <LL_RCC_SetAPB1Prescaler+0x24>)
 8000706:	689b      	ldr	r3, [r3, #8]
 8000708:	f423 52e0 	bic.w	r2, r3, #7168	; 0x1c00
 800070c:	4904      	ldr	r1, [pc, #16]	; (8000720 <LL_RCC_SetAPB1Prescaler+0x24>)
 800070e:	687b      	ldr	r3, [r7, #4]
 8000710:	4313      	orrs	r3, r2
 8000712:	608b      	str	r3, [r1, #8]
}
 8000714:	bf00      	nop
 8000716:	370c      	adds	r7, #12
 8000718:	46bd      	mov	sp, r7
 800071a:	f85d 7b04 	ldr.w	r7, [sp], #4
 800071e:	4770      	bx	lr
 8000720:	40023800 	.word	0x40023800

08000724 <LL_RCC_SetAPB2Prescaler>:
  *         @arg @ref LL_RCC_APB2_DIV_8
  *         @arg @ref LL_RCC_APB2_DIV_16
  * @retval None
  */
__STATIC_INLINE void LL_RCC_SetAPB2Prescaler(uint32_t Prescaler)
{
 8000724:	b480      	push	{r7}
 8000726:	b083      	sub	sp, #12
 8000728:	af00      	add	r7, sp, #0
 800072a:	6078      	str	r0, [r7, #4]
  MODIFY_REG(RCC->CFGR, RCC_CFGR_PPRE2, Prescaler);
 800072c:	4b06      	ldr	r3, [pc, #24]	; (8000748 <LL_RCC_SetAPB2Prescaler+0x24>)
 800072e:	689b      	ldr	r3, [r3, #8]
 8000730:	f423 4260 	bic.w	r2, r3, #57344	; 0xe000
 8000734:	4904      	ldr	r1, [pc, #16]	; (8000748 <LL_RCC_SetAPB2Prescaler+0x24>)
 8000736:	687b      	ldr	r3, [r7, #4]
 8000738:	4313      	orrs	r3, r2
 800073a:	608b      	str	r3, [r1, #8]
}
 800073c:	bf00      	nop
 800073e:	370c      	adds	r7, #12
 8000740:	46bd      	mov	sp, r7
 8000742:	f85d 7b04 	ldr.w	r7, [sp], #4
 8000746:	4770      	bx	lr
 8000748:	40023800 	.word	0x40023800

0800074c <LL_RCC_PLL_Enable>:
  * @brief  Enable PLL
  * @rmtoll CR           PLLON         LL_RCC_PLL_Enable
  * @retval None
  */
__STATIC_INLINE void LL_RCC_PLL_Enable(void)
{
 800074c:	b480      	push	{r7}
 800074e:	af00      	add	r7, sp, #0
  SET_BIT(RCC->CR, RCC_CR_PLLON);
 8000750:	4b05      	ldr	r3, [pc, #20]	; (8000768 <LL_RCC_PLL_Enable+0x1c>)
 8000752:	681b      	ldr	r3, [r3, #0]
 8000754:	4a04      	ldr	r2, [pc, #16]	; (8000768 <LL_RCC_PLL_Enable+0x1c>)
 8000756:	f043 7380 	orr.w	r3, r3, #16777216	; 0x1000000
 800075a:	6013      	str	r3, [r2, #0]
}
 800075c:	bf00      	nop
 800075e:	46bd      	mov	sp, r7
 8000760:	f85d 7b04 	ldr.w	r7, [sp], #4
 8000764:	4770      	bx	lr
 8000766:	bf00      	nop
 8000768:	40023800 	.word	0x40023800

0800076c <LL_RCC_PLL_IsReady>:
  * @brief  Check if PLL Ready
  * @rmtoll CR           PLLRDY        LL_RCC_PLL_IsReady
  * @retval State of bit (1 or 0).
  */
__STATIC_INLINE uint32_t LL_RCC_PLL_IsReady(void)
{
 800076c:	b480      	push	{r7}
 800076e:	af00      	add	r7, sp, #0
  return (READ_BIT(RCC->CR, RCC_CR_PLLRDY) == (RCC_CR_PLLRDY));
 8000770:	4b07      	ldr	r3, [pc, #28]	; (8000790 <LL_RCC_PLL_IsReady+0x24>)
 8000772:	681b      	ldr	r3, [r3, #0]
 8000774:	f003 7300 	and.w	r3, r3, #33554432	; 0x2000000
 8000778:	f1b3 7f00 	cmp.w	r3, #33554432	; 0x2000000
 800077c:	bf0c      	ite	eq
 800077e:	2301      	moveq	r3, #1
 8000780:	2300      	movne	r3, #0
 8000782:	b2db      	uxtb	r3, r3
}
 8000784:	4618      	mov	r0, r3
 8000786:	46bd      	mov	sp, r7
 8000788:	f85d 7b04 	ldr.w	r7, [sp], #4
 800078c:	4770      	bx	lr
 800078e:	bf00      	nop
 8000790:	40023800 	.word	0x40023800

08000794 <LL_RCC_PLL_ConfigDomain_SYS>:
  *
  *         (*) value not defined in all devices.
  * @retval None
  */
__STATIC_INLINE void LL_RCC_PLL_ConfigDomain_SYS(uint32_t Source, uint32_t PLLM, uint32_t PLLN, uint32_t PLLP_R)
{
 8000794:	b480      	push	{r7}
 8000796:	b085      	sub	sp, #20
 8000798:	af00      	add	r7, sp, #0
 800079a:	60f8      	str	r0, [r7, #12]
 800079c:	60b9      	str	r1, [r7, #8]
 800079e:	607a      	str	r2, [r7, #4]
 80007a0:	603b      	str	r3, [r7, #0]
  MODIFY_REG(RCC->PLLCFGR, RCC_PLLCFGR_PLLSRC | RCC_PLLCFGR_PLLM | RCC_PLLCFGR_PLLN,
 80007a2:	4b0d      	ldr	r3, [pc, #52]	; (80007d8 <LL_RCC_PLL_ConfigDomain_SYS+0x44>)
 80007a4:	685a      	ldr	r2, [r3, #4]
 80007a6:	4b0d      	ldr	r3, [pc, #52]	; (80007dc <LL_RCC_PLL_ConfigDomain_SYS+0x48>)
 80007a8:	4013      	ands	r3, r2
 80007aa:	68f9      	ldr	r1, [r7, #12]
 80007ac:	68ba      	ldr	r2, [r7, #8]
 80007ae:	4311      	orrs	r1, r2
 80007b0:	687a      	ldr	r2, [r7, #4]
 80007b2:	0192      	lsls	r2, r2, #6
 80007b4:	430a      	orrs	r2, r1
 80007b6:	4908      	ldr	r1, [pc, #32]	; (80007d8 <LL_RCC_PLL_ConfigDomain_SYS+0x44>)
 80007b8:	4313      	orrs	r3, r2
 80007ba:	604b      	str	r3, [r1, #4]
             Source | PLLM | PLLN << RCC_PLLCFGR_PLLN_Pos);
  MODIFY_REG(RCC->PLLCFGR, RCC_PLLCFGR_PLLP, PLLP_R);
 80007bc:	4b06      	ldr	r3, [pc, #24]	; (80007d8 <LL_RCC_PLL_ConfigDomain_SYS+0x44>)
 80007be:	685b      	ldr	r3, [r3, #4]
 80007c0:	f423 3240 	bic.w	r2, r3, #196608	; 0x30000
 80007c4:	4904      	ldr	r1, [pc, #16]	; (80007d8 <LL_RCC_PLL_ConfigDomain_SYS+0x44>)
 80007c6:	683b      	ldr	r3, [r7, #0]
 80007c8:	4313      	orrs	r3, r2
 80007ca:	604b      	str	r3, [r1, #4]
#if defined(RCC_PLLR_SYSCLK_SUPPORT)
  MODIFY_REG(RCC->PLLCFGR, RCC_PLLCFGR_PLLR, PLLP_R);
#endif /* RCC_PLLR_SYSCLK_SUPPORT */
}
 80007cc:	bf00      	nop
 80007ce:	3714      	adds	r7, #20
 80007d0:	46bd      	mov	sp, r7
 80007d2:	f85d 7b04 	ldr.w	r7, [sp], #4
 80007d6:	4770      	bx	lr
 80007d8:	40023800 	.word	0x40023800
 80007dc:	ffbf8000 	.word	0xffbf8000

080007e0 <LL_APB1_GRP1_EnableClock>:
  *
  *         (*) value not defined in all devices.
  * @retval None
*/
__STATIC_INLINE void LL_APB1_GRP1_EnableClock(uint32_t Periphs)
{
 80007e0:	b480      	push	{r7}
 80007e2:	b085      	sub	sp, #20
 80007e4:	af00      	add	r7, sp, #0
 80007e6:	6078      	str	r0, [r7, #4]
  __IO uint32_t tmpreg;
  SET_BIT(RCC->APB1ENR, Periphs);
 80007e8:	4b08      	ldr	r3, [pc, #32]	; (800080c <LL_APB1_GRP1_EnableClock+0x2c>)
 80007ea:	6c1a      	ldr	r2, [r3, #64]	; 0x40
 80007ec:	4907      	ldr	r1, [pc, #28]	; (800080c <LL_APB1_GRP1_EnableClock+0x2c>)
 80007ee:	687b      	ldr	r3, [r7, #4]
 80007f0:	4313      	orrs	r3, r2
 80007f2:	640b      	str	r3, [r1, #64]	; 0x40
  /* Delay after an RCC peripheral clock enabling */
  tmpreg = READ_BIT(RCC->APB1ENR, Periphs);
 80007f4:	4b05      	ldr	r3, [pc, #20]	; (800080c <LL_APB1_GRP1_EnableClock+0x2c>)
 80007f6:	6c1a      	ldr	r2, [r3, #64]	; 0x40
 80007f8:	687b      	ldr	r3, [r7, #4]
 80007fa:	4013      	ands	r3, r2
 80007fc:	60fb      	str	r3, [r7, #12]
  (void)tmpreg;
 80007fe:	68fb      	ldr	r3, [r7, #12]
}
 8000800:	bf00      	nop
 8000802:	3714      	adds	r7, #20
 8000804:	46bd      	mov	sp, r7
 8000806:	f85d 7b04 	ldr.w	r7, [sp], #4
 800080a:	4770      	bx	lr
 800080c:	40023800 	.word	0x40023800

08000810 <LL_APB2_GRP1_EnableClock>:
  *
  *         (*) value not defined in all devices.
  * @retval None
*/
__STATIC_INLINE void LL_APB2_GRP1_EnableClock(uint32_t Periphs)
{
 8000810:	b480      	push	{r7}
 8000812:	b085      	sub	sp, #20
 8000814:	af00      	add	r7, sp, #0
 8000816:	6078      	str	r0, [r7, #4]
  __IO uint32_t tmpreg;
  SET_BIT(RCC->APB2ENR, Periphs);
 8000818:	4b08      	ldr	r3, [pc, #32]	; (800083c <LL_APB2_GRP1_EnableClock+0x2c>)
 800081a:	6c5a      	ldr	r2, [r3, #68]	; 0x44
 800081c:	4907      	ldr	r1, [pc, #28]	; (800083c <LL_APB2_GRP1_EnableClock+0x2c>)
 800081e:	687b      	ldr	r3, [r7, #4]
 8000820:	4313      	orrs	r3, r2
 8000822:	644b      	str	r3, [r1, #68]	; 0x44
  /* Delay after an RCC peripheral clock enabling */
  tmpreg = READ_BIT(RCC->APB2ENR, Periphs);
 8000824:	4b05      	ldr	r3, [pc, #20]	; (800083c <LL_APB2_GRP1_EnableClock+0x2c>)
 8000826:	6c5a      	ldr	r2, [r3, #68]	; 0x44
 8000828:	687b      	ldr	r3, [r7, #4]
 800082a:	4013      	ands	r3, r2
 800082c:	60fb      	str	r3, [r7, #12]
  (void)tmpreg;
 800082e:	68fb      	ldr	r3, [r7, #12]
}
 8000830:	bf00      	nop
 8000832:	3714      	adds	r7, #20
 8000834:	46bd      	mov	sp, r7
 8000836:	f85d 7b04 	ldr.w	r7, [sp], #4
 800083a:	4770      	bx	lr
 800083c:	40023800 	.word	0x40023800

08000840 <LL_FLASH_SetLatency>:
  *         @arg @ref LL_FLASH_LATENCY_14
  *         @arg @ref LL_FLASH_LATENCY_15
  * @retval None
  */
__STATIC_INLINE void LL_FLASH_SetLatency(uint32_t Latency)
{
 8000840:	b480      	push	{r7}
 8000842:	b083      	sub	sp, #12
 8000844:	af00      	add	r7, sp, #0
 8000846:	6078      	str	r0, [r7, #4]
  MODIFY_REG(FLASH->ACR, FLASH_ACR_LATENCY, Latency);
 8000848:	4b06      	ldr	r3, [pc, #24]	; (8000864 <LL_FLASH_SetLatency+0x24>)
 800084a:	681b      	ldr	r3, [r3, #0]
 800084c:	f023 0207 	bic.w	r2, r3, #7
 8000850:	4904      	ldr	r1, [pc, #16]	; (8000864 <LL_FLASH_SetLatency+0x24>)
 8000852:	687b      	ldr	r3, [r7, #4]
 8000854:	4313      	orrs	r3, r2
 8000856:	600b      	str	r3, [r1, #0]
}
 8000858:	bf00      	nop
 800085a:	370c      	adds	r7, #12
 800085c:	46bd      	mov	sp, r7
 800085e:	f85d 7b04 	ldr.w	r7, [sp], #4
 8000862:	4770      	bx	lr
 8000864:	40023c00 	.word	0x40023c00

08000868 <LL_FLASH_GetLatency>:
  *         @arg @ref LL_FLASH_LATENCY_13
  *         @arg @ref LL_FLASH_LATENCY_14
  *         @arg @ref LL_FLASH_LATENCY_15
  */
__STATIC_INLINE uint32_t LL_FLASH_GetLatency(void)
{
 8000868:	b480      	push	{r7}
 800086a:	af00      	add	r7, sp, #0
  return (uint32_t)(READ_BIT(FLASH->ACR, FLASH_ACR_LATENCY));
 800086c:	4b04      	ldr	r3, [pc, #16]	; (8000880 <LL_FLASH_GetLatency+0x18>)
 800086e:	681b      	ldr	r3, [r3, #0]
 8000870:	f003 0307 	and.w	r3, r3, #7
}
 8000874:	4618      	mov	r0, r3
 8000876:	46bd      	mov	sp, r7
 8000878:	f85d 7b04 	ldr.w	r7, [sp], #4
 800087c:	4770      	bx	lr
 800087e:	bf00      	nop
 8000880:	40023c00 	.word	0x40023c00

08000884 <LL_PWR_SetRegulVoltageScaling>:
  *         @arg @ref LL_PWR_REGU_VOLTAGE_SCALE3
  *         (*) LL_PWR_REGU_VOLTAGE_SCALE1 is not available for STM32F401xx devices
  * @retval None
  */
__STATIC_INLINE void LL_PWR_SetRegulVoltageScaling(uint32_t VoltageScaling)
{
 8000884:	b480      	push	{r7}
 8000886:	b083      	sub	sp, #12
 8000888:	af00      	add	r7, sp, #0
 800088a:	6078      	str	r0, [r7, #4]
  MODIFY_REG(PWR->CR, PWR_CR_VOS, VoltageScaling);
 800088c:	4b06      	ldr	r3, [pc, #24]	; (80008a8 <LL_PWR_SetRegulVoltageScaling+0x24>)
 800088e:	681b      	ldr	r3, [r3, #0]
 8000890:	f423 4280 	bic.w	r2, r3, #16384	; 0x4000
 8000894:	4904      	ldr	r1, [pc, #16]	; (80008a8 <LL_PWR_SetRegulVoltageScaling+0x24>)
 8000896:	687b      	ldr	r3, [r7, #4]
 8000898:	4313      	orrs	r3, r2
 800089a:	600b      	str	r3, [r1, #0]
}
 800089c:	bf00      	nop
 800089e:	370c      	adds	r7, #12
 80008a0:	46bd      	mov	sp, r7
 80008a2:	f85d 7b04 	ldr.w	r7, [sp], #4
 80008a6:	4770      	bx	lr
 80008a8:	40007000 	.word	0x40007000

080008ac <main>:
static void perform_state_left(struct state_machine *led_chain_ptr);

static struct state_machine led_chain;

int main(void)
{
 80008ac:	b580      	push	{r7, lr}
 80008ae:	af00      	add	r7, sp, #0
	HAL_Init();
 80008b0:	f000 faca 	bl	8000e48 <HAL_Init>
	Initialize_MCU();
 80008b4:	f000 f8d6 	bl	8000a64 <Initialize_MCU>

	while(1) {
		activate_state_machine(&led_chain);
 80008b8:	4803      	ldr	r0, [pc, #12]	; (80008c8 <main+0x1c>)
 80008ba:	f000 f807 	bl	80008cc <activate_state_machine>
		perform_state_machine(&led_chain);
 80008be:	4802      	ldr	r0, [pc, #8]	; (80008c8 <main+0x1c>)
 80008c0:	f000 f81a 	bl	80008f8 <perform_state_machine>
		activate_state_machine(&led_chain);
 80008c4:	e7f8      	b.n	80008b8 <main+0xc>
 80008c6:	bf00      	nop
 80008c8:	20000028 	.word	0x20000028

080008cc <activate_state_machine>:
	}
}

static void activate_state_machine(struct state_machine *led_chain_ptr)
{
 80008cc:	b480      	push	{r7}
 80008ce:	b083      	sub	sp, #12
 80008d0:	af00      	add	r7, sp, #0
 80008d2:	6078      	str	r0, [r7, #4]
	CURRENT_STATE = STATE_0;
 80008d4:	687b      	ldr	r3, [r7, #4]
 80008d6:	2200      	movs	r2, #0
 80008d8:	705a      	strb	r2, [r3, #1]
	PREVIOUS_STATE = STATE_0;
 80008da:	687b      	ldr	r3, [r7, #4]
 80008dc:	2200      	movs	r2, #0
 80008de:	701a      	strb	r2, [r3, #0]
	led_chain_ptr->flag = false;
 80008e0:	687b      	ldr	r3, [r7, #4]
 80008e2:	2200      	movs	r2, #0
 80008e4:	70da      	strb	r2, [r3, #3]
	RESET_STATE = false;
 80008e6:	687b      	ldr	r3, [r7, #4]
 80008e8:	2200      	movs	r2, #0
 80008ea:	709a      	strb	r2, [r3, #2]
}
 80008ec:	bf00      	nop
 80008ee:	370c      	adds	r7, #12
 80008f0:	46bd      	mov	sp, r7
 80008f2:	f85d 7b04 	ldr.w	r7, [sp], #4
 80008f6:	4770      	bx	lr

080008f8 <perform_state_machine>:

static void perform_state_machine(struct state_machine *led_chain_ptr)
{
 80008f8:	b580      	push	{r7, lr}
 80008fa:	b082      	sub	sp, #8
 80008fc:	af00      	add	r7, sp, #0
 80008fe:	6078      	str	r0, [r7, #4]
	while (1) {
		if (state_top_check(led_chain)) {
 8000900:	4b1b      	ldr	r3, [pc, #108]	; (8000970 <perform_state_machine+0x78>)
 8000902:	6818      	ldr	r0, [r3, #0]
 8000904:	f001 fbb0 	bl	8002068 <state_top_check>
 8000908:	4603      	mov	r3, r0
 800090a:	2b00      	cmp	r3, #0
 800090c:	d003      	beq.n	8000916 <perform_state_machine+0x1e>
			perform_state_top(&led_chain);
 800090e:	4818      	ldr	r0, [pc, #96]	; (8000970 <perform_state_machine+0x78>)
 8000910:	f000 f830 	bl	8000974 <perform_state_top>
 8000914:	e7f4      	b.n	8000900 <perform_state_machine+0x8>
		}

		else if (state_bottom_check(led_chain)) {
 8000916:	4b16      	ldr	r3, [pc, #88]	; (8000970 <perform_state_machine+0x78>)
 8000918:	6818      	ldr	r0, [r3, #0]
 800091a:	f001 fbbe 	bl	800209a <state_bottom_check>
 800091e:	4603      	mov	r3, r0
 8000920:	2b00      	cmp	r3, #0
 8000922:	d00a      	beq.n	800093a <perform_state_machine+0x42>
			perform_state_bottom(&led_chain);
 8000924:	4812      	ldr	r0, [pc, #72]	; (8000970 <perform_state_machine+0x78>)
 8000926:	f000 f851 	bl	80009cc <perform_state_bottom>

			if (RESET_STATE) {
 800092a:	687b      	ldr	r3, [r7, #4]
 800092c:	789b      	ldrb	r3, [r3, #2]
 800092e:	2b00      	cmp	r3, #0
 8000930:	d119      	bne.n	8000966 <perform_state_machine+0x6e>
				break;
			}
			CURRENT_STATE = STATE_2;
 8000932:	687b      	ldr	r3, [r7, #4]
 8000934:	2202      	movs	r2, #2
 8000936:	705a      	strb	r2, [r3, #1]
 8000938:	e7e2      	b.n	8000900 <perform_state_machine+0x8>
		}

		else if (state_right_check(led_chain)) {
 800093a:	4b0d      	ldr	r3, [pc, #52]	; (8000970 <perform_state_machine+0x78>)
 800093c:	6818      	ldr	r0, [r3, #0]
 800093e:	f001 fbc2 	bl	80020c6 <state_right_check>
 8000942:	4603      	mov	r3, r0
 8000944:	2b00      	cmp	r3, #0
 8000946:	d003      	beq.n	8000950 <perform_state_machine+0x58>
			perform_state_right(&led_chain);
 8000948:	4809      	ldr	r0, [pc, #36]	; (8000970 <perform_state_machine+0x78>)
 800094a:	f000 f857 	bl	80009fc <perform_state_right>
 800094e:	e7d7      	b.n	8000900 <perform_state_machine+0x8>
		}

		else if (state_left_check(led_chain)) {
 8000950:	4b07      	ldr	r3, [pc, #28]	; (8000970 <perform_state_machine+0x78>)
 8000952:	6818      	ldr	r0, [r3, #0]
 8000954:	f001 fbcd 	bl	80020f2 <state_left_check>
 8000958:	4603      	mov	r3, r0
 800095a:	2b00      	cmp	r3, #0
 800095c:	d0d0      	beq.n	8000900 <perform_state_machine+0x8>
			perform_state_left(&led_chain);
 800095e:	4804      	ldr	r0, [pc, #16]	; (8000970 <perform_state_machine+0x78>)
 8000960:	f000 f866 	bl	8000a30 <perform_state_left>
		if (state_top_check(led_chain)) {
 8000964:	e7cc      	b.n	8000900 <perform_state_machine+0x8>
				break;
 8000966:	bf00      	nop
		}
	}
}
 8000968:	bf00      	nop
 800096a:	3708      	adds	r7, #8
 800096c:	46bd      	mov	sp, r7
 800096e:	bd80      	pop	{r7, pc}
 8000970:	20000028 	.word	0x20000028

08000974 <perform_state_top>:

static void perform_state_top(struct state_machine *led_chain_ptr)
{
 8000974:	b580      	push	{r7, lr}
 8000976:	b082      	sub	sp, #8
 8000978:	af00      	add	r7, sp, #0
 800097a:	6078      	str	r0, [r7, #4]
	state_top_init();
 800097c:	f001 fb14 	bl	8001fa8 <state_top_init>
	state_run(&led_chain);
 8000980:	4811      	ldr	r0, [pc, #68]	; (80009c8 <perform_state_top+0x54>)
 8000982:	f001 fb00 	bl	8001f86 <state_run>
	state_top_deinit();
 8000986:	f001 fb1b 	bl	8001fc0 <state_top_deinit>
	state_flag_reset(&led_chain);
 800098a:	480f      	ldr	r0, [pc, #60]	; (80009c8 <perform_state_top+0x54>)
 800098c:	f001 fbc7 	bl	800211e <state_flag_reset>

	CURRENT_STATE = STATE_1;
 8000990:	687b      	ldr	r3, [r7, #4]
 8000992:	2201      	movs	r2, #1
 8000994:	705a      	strb	r2, [r3, #1]

	if (PREVIOUS_STATE == STATE_2) {
 8000996:	687b      	ldr	r3, [r7, #4]
 8000998:	781b      	ldrb	r3, [r3, #0]
 800099a:	2b02      	cmp	r3, #2
 800099c:	d103      	bne.n	80009a6 <perform_state_top+0x32>
		CURRENT_STATE = STATE_3;
 800099e:	687b      	ldr	r3, [r7, #4]
 80009a0:	2203      	movs	r2, #3
 80009a2:	705a      	strb	r2, [r3, #1]
 80009a4:	e009      	b.n	80009ba <perform_state_top+0x46>
	}
	else if (PREVIOUS_STATE == STATE_3) {
 80009a6:	687b      	ldr	r3, [r7, #4]
 80009a8:	781b      	ldrb	r3, [r3, #0]
 80009aa:	2b03      	cmp	r3, #3
 80009ac:	d105      	bne.n	80009ba <perform_state_top+0x46>
		CURRENT_STATE = STATE_1;
 80009ae:	687b      	ldr	r3, [r7, #4]
 80009b0:	2201      	movs	r2, #1
 80009b2:	705a      	strb	r2, [r3, #1]
		RESET_STATE = true;
 80009b4:	687b      	ldr	r3, [r7, #4]
 80009b6:	2201      	movs	r2, #1
 80009b8:	709a      	strb	r2, [r3, #2]
	}

	PREVIOUS_STATE = STATE_0;
 80009ba:	687b      	ldr	r3, [r7, #4]
 80009bc:	2200      	movs	r2, #0
 80009be:	701a      	strb	r2, [r3, #0]
}
 80009c0:	bf00      	nop
 80009c2:	3708      	adds	r7, #8
 80009c4:	46bd      	mov	sp, r7
 80009c6:	bd80      	pop	{r7, pc}
 80009c8:	20000028 	.word	0x20000028

080009cc <perform_state_bottom>:

static void perform_state_bottom(struct state_machine *led_chain_ptr)
{
 80009cc:	b580      	push	{r7, lr}
 80009ce:	b082      	sub	sp, #8
 80009d0:	af00      	add	r7, sp, #0
 80009d2:	6078      	str	r0, [r7, #4]
	state_bottom_init();
 80009d4:	f001 fb00 	bl	8001fd8 <state_bottom_init>
	state_run(&led_chain);
 80009d8:	4807      	ldr	r0, [pc, #28]	; (80009f8 <perform_state_bottom+0x2c>)
 80009da:	f001 fad4 	bl	8001f86 <state_run>
	state_bottom_deinit();
 80009de:	f001 fb07 	bl	8001ff0 <state_bottom_deinit>
	state_flag_reset(&led_chain);
 80009e2:	4805      	ldr	r0, [pc, #20]	; (80009f8 <perform_state_bottom+0x2c>)
 80009e4:	f001 fb9b 	bl	800211e <state_flag_reset>

	PREVIOUS_STATE = STATE_1;
 80009e8:	687b      	ldr	r3, [r7, #4]
 80009ea:	2201      	movs	r2, #1
 80009ec:	701a      	strb	r2, [r3, #0]
}
 80009ee:	bf00      	nop
 80009f0:	3708      	adds	r7, #8
 80009f2:	46bd      	mov	sp, r7
 80009f4:	bd80      	pop	{r7, pc}
 80009f6:	bf00      	nop
 80009f8:	20000028 	.word	0x20000028

080009fc <perform_state_right>:

static void perform_state_right(struct state_machine *led_chain_ptr)
{
 80009fc:	b580      	push	{r7, lr}
 80009fe:	b082      	sub	sp, #8
 8000a00:	af00      	add	r7, sp, #0
 8000a02:	6078      	str	r0, [r7, #4]
	state_right_init();
 8000a04:	f001 fb18 	bl	8002038 <state_right_init>
	state_run(&led_chain);
 8000a08:	4808      	ldr	r0, [pc, #32]	; (8000a2c <perform_state_right+0x30>)
 8000a0a:	f001 fabc 	bl	8001f86 <state_run>
	state_right_deinit();
 8000a0e:	f001 fb1f 	bl	8002050 <state_right_deinit>
	state_flag_reset(&led_chain);
 8000a12:	4806      	ldr	r0, [pc, #24]	; (8000a2c <perform_state_right+0x30>)
 8000a14:	f001 fb83 	bl	800211e <state_flag_reset>

	PREVIOUS_STATE = STATE_2;
 8000a18:	687b      	ldr	r3, [r7, #4]
 8000a1a:	2202      	movs	r2, #2
 8000a1c:	701a      	strb	r2, [r3, #0]
	CURRENT_STATE = STATE_0;
 8000a1e:	687b      	ldr	r3, [r7, #4]
 8000a20:	2200      	movs	r2, #0
 8000a22:	705a      	strb	r2, [r3, #1]
}
 8000a24:	bf00      	nop
 8000a26:	3708      	adds	r7, #8
 8000a28:	46bd      	mov	sp, r7
 8000a2a:	bd80      	pop	{r7, pc}
 8000a2c:	20000028 	.word	0x20000028

08000a30 <perform_state_left>:

static void perform_state_left(struct state_machine *led_chain_ptr)
{
 8000a30:	b580      	push	{r7, lr}
 8000a32:	b082      	sub	sp, #8
 8000a34:	af00      	add	r7, sp, #0
 8000a36:	6078      	str	r0, [r7, #4]
	state_left_init();
 8000a38:	f001 fae6 	bl	8002008 <state_left_init>
	state_run(&led_chain);
 8000a3c:	4808      	ldr	r0, [pc, #32]	; (8000a60 <perform_state_left+0x30>)
 8000a3e:	f001 faa2 	bl	8001f86 <state_run>
	state_left_deinit();
 8000a42:	f001 faed 	bl	8002020 <state_left_deinit>
	state_flag_reset(&led_chain);
 8000a46:	4806      	ldr	r0, [pc, #24]	; (8000a60 <perform_state_left+0x30>)
 8000a48:	f001 fb69 	bl	800211e <state_flag_reset>

	PREVIOUS_STATE = STATE_3;
 8000a4c:	687b      	ldr	r3, [r7, #4]
 8000a4e:	2203      	movs	r2, #3
 8000a50:	701a      	strb	r2, [r3, #0]
	CURRENT_STATE = STATE_0;
 8000a52:	687b      	ldr	r3, [r7, #4]
 8000a54:	2200      	movs	r2, #0
 8000a56:	705a      	strb	r2, [r3, #1]
}
 8000a58:	bf00      	nop
 8000a5a:	3708      	adds	r7, #8
 8000a5c:	46bd      	mov	sp, r7
 8000a5e:	bd80      	pop	{r7, pc}
 8000a60:	20000028 	.word	0x20000028

08000a64 <Initialize_MCU>:

void Initialize_MCU(void)
{
 8000a64:	b580      	push	{r7, lr}
 8000a66:	af00      	add	r7, sp, #0
	LL_APB2_GRP1_EnableClock(LL_APB2_GRP1_PERIPH_SYSCFG);
 8000a68:	f44f 4080 	mov.w	r0, #16384	; 0x4000
 8000a6c:	f7ff fed0 	bl	8000810 <LL_APB2_GRP1_EnableClock>
	LL_APB1_GRP1_EnableClock(LL_APB1_GRP1_PERIPH_PWR);
 8000a70:	f04f 5080 	mov.w	r0, #268435456	; 0x10000000
 8000a74:	f7ff feb4 	bl	80007e0 <LL_APB1_GRP1_EnableClock>

	NVIC_SetPriorityGrouping(NVIC_PRIORITYGROUP_4);
 8000a78:	2003      	movs	r0, #3
 8000a7a:	f7ff fd55 	bl	8000528 <__NVIC_SetPriorityGrouping>
	NVIC_SetPriority(SysTick_IRQn, NVIC_EncodePriority(NVIC_GetPriorityGrouping(),15, 0));
 8000a7e:	f7ff fd77 	bl	8000570 <__NVIC_GetPriorityGrouping>
 8000a82:	4603      	mov	r3, r0
 8000a84:	2200      	movs	r2, #0
 8000a86:	210f      	movs	r1, #15
 8000a88:	4618      	mov	r0, r3
 8000a8a:	f7ff fda9 	bl	80005e0 <NVIC_EncodePriority>
 8000a8e:	4603      	mov	r3, r0
 8000a90:	4619      	mov	r1, r3
 8000a92:	f04f 30ff 	mov.w	r0, #4294967295
 8000a96:	f7ff fd79 	bl	800058c <__NVIC_SetPriority>

	SystemClock_Config();
 8000a9a:	f000 f807 	bl	8000aac <SystemClock_Config>
	MX_GPIO_Init();
 8000a9e:	f7ff fce1 	bl	8000464 <MX_GPIO_Init>
	MX_TIM1_Init();
 8000aa2:	f000 f917 	bl	8000cd4 <MX_TIM1_Init>
}
 8000aa6:	bf00      	nop
 8000aa8:	bd80      	pop	{r7, pc}
	...

08000aac <SystemClock_Config>:

void SystemClock_Config(void)
{
 8000aac:	b580      	push	{r7, lr}
 8000aae:	af00      	add	r7, sp, #0
  LL_FLASH_SetLatency(LL_FLASH_LATENCY_2);
 8000ab0:	2002      	movs	r0, #2
 8000ab2:	f7ff fec5 	bl	8000840 <LL_FLASH_SetLatency>
  while(LL_FLASH_GetLatency()!= LL_FLASH_LATENCY_2)
 8000ab6:	bf00      	nop
 8000ab8:	f7ff fed6 	bl	8000868 <LL_FLASH_GetLatency>
 8000abc:	4603      	mov	r3, r0
 8000abe:	2b02      	cmp	r3, #2
 8000ac0:	d1fa      	bne.n	8000ab8 <SystemClock_Config+0xc>
  {
  }
  LL_PWR_SetRegulVoltageScaling(LL_PWR_REGU_VOLTAGE_SCALE1);
 8000ac2:	f44f 4080 	mov.w	r0, #16384	; 0x4000
 8000ac6:	f7ff fedd 	bl	8000884 <LL_PWR_SetRegulVoltageScaling>
  LL_RCC_HSE_Enable();
 8000aca:	f7ff fdbd 	bl	8000648 <LL_RCC_HSE_Enable>

   /* Wait till HSE is ready */
  while(LL_RCC_HSE_IsReady() != 1)
 8000ace:	bf00      	nop
 8000ad0:	f7ff fdca 	bl	8000668 <LL_RCC_HSE_IsReady>
 8000ad4:	4603      	mov	r3, r0
 8000ad6:	2b01      	cmp	r3, #1
 8000ad8:	d1fa      	bne.n	8000ad0 <SystemClock_Config+0x24>
  {

  }
  LL_RCC_PLL_ConfigDomain_SYS(LL_RCC_PLLSOURCE_HSE, LL_RCC_PLLM_DIV_4, 84, LL_RCC_PLLP_DIV_2);
 8000ada:	2300      	movs	r3, #0
 8000adc:	2254      	movs	r2, #84	; 0x54
 8000ade:	2104      	movs	r1, #4
 8000ae0:	f44f 0080 	mov.w	r0, #4194304	; 0x400000
 8000ae4:	f7ff fe56 	bl	8000794 <LL_RCC_PLL_ConfigDomain_SYS>
  LL_RCC_PLL_Enable();
 8000ae8:	f7ff fe30 	bl	800074c <LL_RCC_PLL_Enable>

   /* Wait till PLL is ready */
  while(LL_RCC_PLL_IsReady() != 1)
 8000aec:	bf00      	nop
 8000aee:	f7ff fe3d 	bl	800076c <LL_RCC_PLL_IsReady>
 8000af2:	4603      	mov	r3, r0
 8000af4:	2b01      	cmp	r3, #1
 8000af6:	d1fa      	bne.n	8000aee <SystemClock_Config+0x42>
  {

  }
  LL_RCC_SetAHBPrescaler(LL_RCC_SYSCLK_DIV_1);
 8000af8:	2000      	movs	r0, #0
 8000afa:	f7ff fdeb 	bl	80006d4 <LL_RCC_SetAHBPrescaler>
  LL_RCC_SetAPB1Prescaler(LL_RCC_APB1_DIV_2);
 8000afe:	f44f 5080 	mov.w	r0, #4096	; 0x1000
 8000b02:	f7ff fdfb 	bl	80006fc <LL_RCC_SetAPB1Prescaler>
  LL_RCC_SetAPB2Prescaler(LL_RCC_APB2_DIV_1);
 8000b06:	2000      	movs	r0, #0
 8000b08:	f7ff fe0c 	bl	8000724 <LL_RCC_SetAPB2Prescaler>
  LL_RCC_SetSysClkSource(LL_RCC_SYS_CLKSOURCE_PLL);
 8000b0c:	2002      	movs	r0, #2
 8000b0e:	f7ff fdbf 	bl	8000690 <LL_RCC_SetSysClkSource>

   /* Wait till System clock is ready */
  while(LL_RCC_GetSysClkSource() != LL_RCC_SYS_CLKSOURCE_STATUS_PLL)
 8000b12:	bf00      	nop
 8000b14:	f7ff fdd0 	bl	80006b8 <LL_RCC_GetSysClkSource>
 8000b18:	4603      	mov	r3, r0
 8000b1a:	2b08      	cmp	r3, #8
 8000b1c:	d1fa      	bne.n	8000b14 <SystemClock_Config+0x68>
  {

  }
  LL_Init1msTick(84000000);
 8000b1e:	4804      	ldr	r0, [pc, #16]	; (8000b30 <SystemClock_Config+0x84>)
 8000b20:	f001 f9d0 	bl	8001ec4 <LL_Init1msTick>
  LL_SetSystemCoreClock(84000000);
 8000b24:	4802      	ldr	r0, [pc, #8]	; (8000b30 <SystemClock_Config+0x84>)
 8000b26:	f001 fa01 	bl	8001f2c <LL_SetSystemCoreClock>
}
 8000b2a:	bf00      	nop
 8000b2c:	bd80      	pop	{r7, pc}
 8000b2e:	bf00      	nop
 8000b30:	0501bd00 	.word	0x0501bd00

08000b34 <Error_Handler>:

void Error_Handler(void)
{
 8000b34:	b480      	push	{r7}
 8000b36:	af00      	add	r7, sp, #0
  __ASM volatile ("cpsid i" : : : "memory");
 8000b38:	b672      	cpsid	i
}
 8000b3a:	bf00      	nop
  /* USER CODE BEGIN Error_Handler_Debug */
  /* User can add his own implementation to report the HAL error return state */
  __disable_irq();
  while (1)
 8000b3c:	e7fe      	b.n	8000b3c <Error_Handler+0x8>
	...

08000b40 <HAL_MspInit>:
/* USER CODE END 0 */
/**
  * Initializes the Global MSP.
  */
void HAL_MspInit(void)
{
 8000b40:	b480      	push	{r7}
 8000b42:	b083      	sub	sp, #12
 8000b44:	af00      	add	r7, sp, #0
  /* USER CODE BEGIN MspInit 0 */

  /* USER CODE END MspInit 0 */

  __HAL_RCC_SYSCFG_CLK_ENABLE();
 8000b46:	2300      	movs	r3, #0
 8000b48:	607b      	str	r3, [r7, #4]
 8000b4a:	4b10      	ldr	r3, [pc, #64]	; (8000b8c <HAL_MspInit+0x4c>)
 8000b4c:	6c5b      	ldr	r3, [r3, #68]	; 0x44
 8000b4e:	4a0f      	ldr	r2, [pc, #60]	; (8000b8c <HAL_MspInit+0x4c>)
 8000b50:	f443 4380 	orr.w	r3, r3, #16384	; 0x4000
 8000b54:	6453      	str	r3, [r2, #68]	; 0x44
 8000b56:	4b0d      	ldr	r3, [pc, #52]	; (8000b8c <HAL_MspInit+0x4c>)
 8000b58:	6c5b      	ldr	r3, [r3, #68]	; 0x44
 8000b5a:	f403 4380 	and.w	r3, r3, #16384	; 0x4000
 8000b5e:	607b      	str	r3, [r7, #4]
 8000b60:	687b      	ldr	r3, [r7, #4]
  __HAL_RCC_PWR_CLK_ENABLE();
 8000b62:	2300      	movs	r3, #0
 8000b64:	603b      	str	r3, [r7, #0]
 8000b66:	4b09      	ldr	r3, [pc, #36]	; (8000b8c <HAL_MspInit+0x4c>)
 8000b68:	6c1b      	ldr	r3, [r3, #64]	; 0x40
 8000b6a:	4a08      	ldr	r2, [pc, #32]	; (8000b8c <HAL_MspInit+0x4c>)
 8000b6c:	f043 5380 	orr.w	r3, r3, #268435456	; 0x10000000
 8000b70:	6413      	str	r3, [r2, #64]	; 0x40
 8000b72:	4b06      	ldr	r3, [pc, #24]	; (8000b8c <HAL_MspInit+0x4c>)
 8000b74:	6c1b      	ldr	r3, [r3, #64]	; 0x40
 8000b76:	f003 5380 	and.w	r3, r3, #268435456	; 0x10000000
 8000b7a:	603b      	str	r3, [r7, #0]
 8000b7c:	683b      	ldr	r3, [r7, #0]
  /* System interrupt init*/

  /* USER CODE BEGIN MspInit 1 */

  /* USER CODE END MspInit 1 */
}
 8000b7e:	bf00      	nop
 8000b80:	370c      	adds	r7, #12
 8000b82:	46bd      	mov	sp, r7
 8000b84:	f85d 7b04 	ldr.w	r7, [sp], #4
 8000b88:	4770      	bx	lr
 8000b8a:	bf00      	nop
 8000b8c:	40023800 	.word	0x40023800

08000b90 <LL_EXTI_IsActiveFlag_0_31>:
  * @note   (*): Available in some devices
  * @note   Please check each device line mapping for EXTI Line availability
  * @retval State of bit (1 or 0).
  */
__STATIC_INLINE uint32_t LL_EXTI_IsActiveFlag_0_31(uint32_t ExtiLine)
{
 8000b90:	b480      	push	{r7}
 8000b92:	b083      	sub	sp, #12
 8000b94:	af00      	add	r7, sp, #0
 8000b96:	6078      	str	r0, [r7, #4]
  return (READ_BIT(EXTI->PR, ExtiLine) == (ExtiLine));
 8000b98:	4b07      	ldr	r3, [pc, #28]	; (8000bb8 <LL_EXTI_IsActiveFlag_0_31+0x28>)
 8000b9a:	695a      	ldr	r2, [r3, #20]
 8000b9c:	687b      	ldr	r3, [r7, #4]
 8000b9e:	4013      	ands	r3, r2
 8000ba0:	687a      	ldr	r2, [r7, #4]
 8000ba2:	429a      	cmp	r2, r3
 8000ba4:	bf0c      	ite	eq
 8000ba6:	2301      	moveq	r3, #1
 8000ba8:	2300      	movne	r3, #0
 8000baa:	b2db      	uxtb	r3, r3
}
 8000bac:	4618      	mov	r0, r3
 8000bae:	370c      	adds	r7, #12
 8000bb0:	46bd      	mov	sp, r7
 8000bb2:	f85d 7b04 	ldr.w	r7, [sp], #4
 8000bb6:	4770      	bx	lr
 8000bb8:	40013c00 	.word	0x40013c00

08000bbc <LL_EXTI_ClearFlag_0_31>:
  * @note   (*): Available in some devices
  * @note   Please check each device line mapping for EXTI Line availability
  * @retval None
  */
__STATIC_INLINE void LL_EXTI_ClearFlag_0_31(uint32_t ExtiLine)
{
 8000bbc:	b480      	push	{r7}
 8000bbe:	b083      	sub	sp, #12
 8000bc0:	af00      	add	r7, sp, #0
 8000bc2:	6078      	str	r0, [r7, #4]
  WRITE_REG(EXTI->PR, ExtiLine);
 8000bc4:	4a04      	ldr	r2, [pc, #16]	; (8000bd8 <LL_EXTI_ClearFlag_0_31+0x1c>)
 8000bc6:	687b      	ldr	r3, [r7, #4]
 8000bc8:	6153      	str	r3, [r2, #20]
}
 8000bca:	bf00      	nop
 8000bcc:	370c      	adds	r7, #12
 8000bce:	46bd      	mov	sp, r7
 8000bd0:	f85d 7b04 	ldr.w	r7, [sp], #4
 8000bd4:	4770      	bx	lr
 8000bd6:	bf00      	nop
 8000bd8:	40013c00 	.word	0x40013c00

08000bdc <NMI_Handler>:
/******************************************************************************/
/**
  * @brief This function handles Non maskable interrupt.
  */
void NMI_Handler(void)
{
 8000bdc:	b480      	push	{r7}
 8000bde:	af00      	add	r7, sp, #0
  /* USER CODE BEGIN NonMaskableInt_IRQn 0 */

  /* USER CODE END NonMaskableInt_IRQn 0 */
  /* USER CODE BEGIN NonMaskableInt_IRQn 1 */
  while (1)
 8000be0:	e7fe      	b.n	8000be0 <NMI_Handler+0x4>

08000be2 <HardFault_Handler>:

/**
  * @brief This function handles Hard fault interrupt.
  */
void HardFault_Handler(void)
{
 8000be2:	b480      	push	{r7}
 8000be4:	af00      	add	r7, sp, #0
  /* USER CODE BEGIN HardFault_IRQn 0 */

  /* USER CODE END HardFault_IRQn 0 */
  while (1)
 8000be6:	e7fe      	b.n	8000be6 <HardFault_Handler+0x4>

08000be8 <MemManage_Handler>:

/**
  * @brief This function handles Memory management fault.
  */
void MemManage_Handler(void)
{
 8000be8:	b480      	push	{r7}
 8000bea:	af00      	add	r7, sp, #0
  /* USER CODE BEGIN MemoryManagement_IRQn 0 */

  /* USER CODE END MemoryManagement_IRQn 0 */
  while (1)
 8000bec:	e7fe      	b.n	8000bec <MemManage_Handler+0x4>

08000bee <BusFault_Handler>:

/**
  * @brief This function handles Pre-fetch fault, memory access fault.
  */
void BusFault_Handler(void)
{
 8000bee:	b480      	push	{r7}
 8000bf0:	af00      	add	r7, sp, #0
  /* USER CODE BEGIN BusFault_IRQn 0 */

  /* USER CODE END BusFault_IRQn 0 */
  while (1)
 8000bf2:	e7fe      	b.n	8000bf2 <BusFault_Handler+0x4>

08000bf4 <UsageFault_Handler>:

/**
  * @brief This function handles Undefined instruction or illegal state.
  */
void UsageFault_Handler(void)
{
 8000bf4:	b480      	push	{r7}
 8000bf6:	af00      	add	r7, sp, #0
  /* USER CODE BEGIN UsageFault_IRQn 0 */

  /* USER CODE END UsageFault_IRQn 0 */
  while (1)
 8000bf8:	e7fe      	b.n	8000bf8 <UsageFault_Handler+0x4>

08000bfa <SVC_Handler>:

/**
  * @brief This function handles System service call via SWI instruction.
  */
void SVC_Handler(void)
{
 8000bfa:	b480      	push	{r7}
 8000bfc:	af00      	add	r7, sp, #0

  /* USER CODE END SVCall_IRQn 0 */
  /* USER CODE BEGIN SVCall_IRQn 1 */

  /* USER CODE END SVCall_IRQn 1 */
}
 8000bfe:	bf00      	nop
 8000c00:	46bd      	mov	sp, r7
 8000c02:	f85d 7b04 	ldr.w	r7, [sp], #4
 8000c06:	4770      	bx	lr

08000c08 <DebugMon_Handler>:

/**
  * @brief This function handles Debug monitor.
  */
void DebugMon_Handler(void)
{
 8000c08:	b480      	push	{r7}
 8000c0a:	af00      	add	r7, sp, #0

  /* USER CODE END DebugMonitor_IRQn 0 */
  /* USER CODE BEGIN DebugMonitor_IRQn 1 */

  /* USER CODE END DebugMonitor_IRQn 1 */
}
 8000c0c:	bf00      	nop
 8000c0e:	46bd      	mov	sp, r7
 8000c10:	f85d 7b04 	ldr.w	r7, [sp], #4
 8000c14:	4770      	bx	lr

08000c16 <PendSV_Handler>:

/**
  * @brief This function handles Pendable request for system service.
  */
void PendSV_Handler(void)
{
 8000c16:	b480      	push	{r7}
 8000c18:	af00      	add	r7, sp, #0

  /* USER CODE END PendSV_IRQn 0 */
  /* USER CODE BEGIN PendSV_IRQn 1 */

  /* USER CODE END PendSV_IRQn 1 */
}
 8000c1a:	bf00      	nop
 8000c1c:	46bd      	mov	sp, r7
 8000c1e:	f85d 7b04 	ldr.w	r7, [sp], #4
 8000c22:	4770      	bx	lr

08000c24 <SysTick_Handler>:

/**
  * @brief This function handles System tick timer.
  */
void SysTick_Handler(void)
{
 8000c24:	b580      	push	{r7, lr}
 8000c26:	af00      	add	r7, sp, #0
  /* USER CODE BEGIN SysTick_IRQn 0 */

  /* USER CODE END SysTick_IRQn 0 */
  HAL_IncTick();
 8000c28:	f000 f960 	bl	8000eec <HAL_IncTick>
  /* USER CODE BEGIN SysTick_IRQn 1 */

  /* USER CODE END SysTick_IRQn 1 */
}
 8000c2c:	bf00      	nop
 8000c2e:	bd80      	pop	{r7, pc}

08000c30 <EXTI0_IRQHandler>:

/**
  * @brief This function handles EXTI line0 interrupt.
  */
void EXTI0_IRQHandler(struct state_machine *led_chain_ptr)
{
 8000c30:	b580      	push	{r7, lr}
 8000c32:	b082      	sub	sp, #8
 8000c34:	af00      	add	r7, sp, #0
 8000c36:	6078      	str	r0, [r7, #4]
  /* USER CODE BEGIN EXTI0_IRQn 0 */

  /* USER CODE END EXTI0_IRQn 0 */
  if (LL_EXTI_IsActiveFlag_0_31(LL_EXTI_LINE_0) != RESET)
 8000c38:	2001      	movs	r0, #1
 8000c3a:	f7ff ffa9 	bl	8000b90 <LL_EXTI_IsActiveFlag_0_31>
 8000c3e:	4603      	mov	r3, r0
 8000c40:	2b00      	cmp	r3, #0
 8000c42:	d009      	beq.n	8000c58 <EXTI0_IRQHandler+0x28>
  {
    LL_EXTI_ClearFlag_0_31(LL_EXTI_LINE_0);
 8000c44:	2001      	movs	r0, #1
 8000c46:	f7ff ffb9 	bl	8000bbc <LL_EXTI_ClearFlag_0_31>
    /* USER CODE BEGIN LL_EXTI_LINE_0 */
    led_chain_ptr->flag = true;
 8000c4a:	687b      	ldr	r3, [r7, #4]
 8000c4c:	2201      	movs	r2, #1
 8000c4e:	70da      	strb	r2, [r3, #3]
    LL_mDelay(300);
 8000c50:	f44f 7096 	mov.w	r0, #300	; 0x12c
 8000c54:	f001 f944 	bl	8001ee0 <LL_mDelay>
    /* USER CODE END LL_EXTI_LINE_0 */
  }
  /* USER CODE BEGIN EXTI0_IRQn 1 */

  /* USER CODE END EXTI0_IRQn 1 */
}
 8000c58:	bf00      	nop
 8000c5a:	3708      	adds	r7, #8
 8000c5c:	46bd      	mov	sp, r7
 8000c5e:	bd80      	pop	{r7, pc}

08000c60 <TIM1_BRK_TIM9_IRQHandler>:

/**
  * @brief This function handles TIM1 break interrupt and TIM9 global interrupt.
  */
void TIM1_BRK_TIM9_IRQHandler(void)
{
 8000c60:	b580      	push	{r7, lr}
 8000c62:	af00      	add	r7, sp, #0
  /* USER CODE BEGIN TIM1_BRK_TIM9_IRQn 0 */

  /* USER CODE END TIM1_BRK_TIM9_IRQn 0 */
  HAL_TIM_IRQHandler(&htim1);
 8000c64:	4802      	ldr	r0, [pc, #8]	; (8000c70 <TIM1_BRK_TIM9_IRQHandler+0x10>)
 8000c66:	f000 fab5 	bl	80011d4 <HAL_TIM_IRQHandler>
  /* USER CODE BEGIN TIM1_BRK_TIM9_IRQn 1 */

  /* USER CODE END TIM1_BRK_TIM9_IRQn 1 */
}
 8000c6a:	bf00      	nop
 8000c6c:	bd80      	pop	{r7, pc}
 8000c6e:	bf00      	nop
 8000c70:	2000002c 	.word	0x2000002c

08000c74 <TIM1_UP_TIM10_IRQHandler>:

/**
  * @brief This function handles TIM1 update interrupt and TIM10 global interrupt.
  */
void TIM1_UP_TIM10_IRQHandler(void)
{
 8000c74:	b580      	push	{r7, lr}
 8000c76:	af00      	add	r7, sp, #0
  /* USER CODE BEGIN TIM1_UP_TIM10_IRQn 0 */

  /* USER CODE END TIM1_UP_TIM10_IRQn 0 */
  HAL_TIM_IRQHandler(&htim1);
 8000c78:	4802      	ldr	r0, [pc, #8]	; (8000c84 <TIM1_UP_TIM10_IRQHandler+0x10>)
 8000c7a:	f000 faab 	bl	80011d4 <HAL_TIM_IRQHandler>
  /* USER CODE BEGIN TIM1_UP_TIM10_IRQn 1 */

  /* USER CODE END TIM1_UP_TIM10_IRQn 1 */
}
 8000c7e:	bf00      	nop
 8000c80:	bd80      	pop	{r7, pc}
 8000c82:	bf00      	nop
 8000c84:	2000002c 	.word	0x2000002c

08000c88 <TIM1_TRG_COM_TIM11_IRQHandler>:

/**
  * @brief This function handles TIM1 trigger and commutation interrupts and TIM11 global interrupt.
  */
void TIM1_TRG_COM_TIM11_IRQHandler(void)
{
 8000c88:	b580      	push	{r7, lr}
 8000c8a:	af00      	add	r7, sp, #0
  /* USER CODE BEGIN TIM1_TRG_COM_TIM11_IRQn 0 */

  /* USER CODE END TIM1_TRG_COM_TIM11_IRQn 0 */
  HAL_TIM_IRQHandler(&htim1);
 8000c8c:	4802      	ldr	r0, [pc, #8]	; (8000c98 <TIM1_TRG_COM_TIM11_IRQHandler+0x10>)
 8000c8e:	f000 faa1 	bl	80011d4 <HAL_TIM_IRQHandler>
  /* USER CODE BEGIN TIM1_TRG_COM_TIM11_IRQn 1 */

  /* USER CODE END TIM1_TRG_COM_TIM11_IRQn 1 */
}
 8000c92:	bf00      	nop
 8000c94:	bd80      	pop	{r7, pc}
 8000c96:	bf00      	nop
 8000c98:	2000002c 	.word	0x2000002c

08000c9c <TIM1_CC_IRQHandler>:

/**
  * @brief This function handles TIM1 capture compare interrupt.
  */
void TIM1_CC_IRQHandler(void)
{
 8000c9c:	b580      	push	{r7, lr}
 8000c9e:	af00      	add	r7, sp, #0
  /* USER CODE BEGIN TIM1_CC_IRQn 0 */

  /* USER CODE END TIM1_CC_IRQn 0 */
  HAL_TIM_IRQHandler(&htim1);
 8000ca0:	4802      	ldr	r0, [pc, #8]	; (8000cac <TIM1_CC_IRQHandler+0x10>)
 8000ca2:	f000 fa97 	bl	80011d4 <HAL_TIM_IRQHandler>
  /* USER CODE BEGIN TIM1_CC_IRQn 1 */

  /* USER CODE END TIM1_CC_IRQn 1 */
}
 8000ca6:	bf00      	nop
 8000ca8:	bd80      	pop	{r7, pc}
 8000caa:	bf00      	nop
 8000cac:	2000002c 	.word	0x2000002c

08000cb0 <SystemInit>:
  *         configuration.
  * @param  None
  * @retval None
  */
void SystemInit(void)
{
 8000cb0:	b480      	push	{r7}
 8000cb2:	af00      	add	r7, sp, #0
  /* FPU settings ------------------------------------------------------------*/
  #if (__FPU_PRESENT == 1) && (__FPU_USED == 1)
    SCB->CPACR |= ((3UL << 10*2)|(3UL << 11*2));  /* set CP10 and CP11 Full Access */
 8000cb4:	4b06      	ldr	r3, [pc, #24]	; (8000cd0 <SystemInit+0x20>)
 8000cb6:	f8d3 3088 	ldr.w	r3, [r3, #136]	; 0x88
 8000cba:	4a05      	ldr	r2, [pc, #20]	; (8000cd0 <SystemInit+0x20>)
 8000cbc:	f443 0370 	orr.w	r3, r3, #15728640	; 0xf00000
 8000cc0:	f8c2 3088 	str.w	r3, [r2, #136]	; 0x88

  /* Configure the Vector Table location -------------------------------------*/
#if defined(USER_VECT_TAB_ADDRESS)
  SCB->VTOR = VECT_TAB_BASE_ADDRESS | VECT_TAB_OFFSET; /* Vector Table Relocation in Internal SRAM */
#endif /* USER_VECT_TAB_ADDRESS */
}
 8000cc4:	bf00      	nop
 8000cc6:	46bd      	mov	sp, r7
 8000cc8:	f85d 7b04 	ldr.w	r7, [sp], #4
 8000ccc:	4770      	bx	lr
 8000cce:	bf00      	nop
 8000cd0:	e000ed00 	.word	0xe000ed00

08000cd4 <MX_TIM1_Init>:

TIM_HandleTypeDef htim1;

/* TIM1 init function */
void MX_TIM1_Init(void)
{
 8000cd4:	b580      	push	{r7, lr}
 8000cd6:	b086      	sub	sp, #24
 8000cd8:	af00      	add	r7, sp, #0

  /* USER CODE BEGIN TIM1_Init 0 */

  /* USER CODE END TIM1_Init 0 */

  TIM_ClockConfigTypeDef sClockSourceConfig = {0};
 8000cda:	f107 0308 	add.w	r3, r7, #8
 8000cde:	2200      	movs	r2, #0
 8000ce0:	601a      	str	r2, [r3, #0]
 8000ce2:	605a      	str	r2, [r3, #4]
 8000ce4:	609a      	str	r2, [r3, #8]
 8000ce6:	60da      	str	r2, [r3, #12]
  TIM_MasterConfigTypeDef sMasterConfig = {0};
 8000ce8:	463b      	mov	r3, r7
 8000cea:	2200      	movs	r2, #0
 8000cec:	601a      	str	r2, [r3, #0]
 8000cee:	605a      	str	r2, [r3, #4]

  /* USER CODE BEGIN TIM1_Init 1 */

  /* USER CODE END TIM1_Init 1 */
  htim1.Instance = TIM1;
 8000cf0:	4b1e      	ldr	r3, [pc, #120]	; (8000d6c <MX_TIM1_Init+0x98>)
 8000cf2:	4a1f      	ldr	r2, [pc, #124]	; (8000d70 <MX_TIM1_Init+0x9c>)
 8000cf4:	601a      	str	r2, [r3, #0]
  htim1.Init.Prescaler = 32000;
 8000cf6:	4b1d      	ldr	r3, [pc, #116]	; (8000d6c <MX_TIM1_Init+0x98>)
 8000cf8:	f44f 42fa 	mov.w	r2, #32000	; 0x7d00
 8000cfc:	605a      	str	r2, [r3, #4]
  htim1.Init.CounterMode = TIM_COUNTERMODE_UP;
 8000cfe:	4b1b      	ldr	r3, [pc, #108]	; (8000d6c <MX_TIM1_Init+0x98>)
 8000d00:	2200      	movs	r2, #0
 8000d02:	609a      	str	r2, [r3, #8]
  htim1.Init.Period = 50;
 8000d04:	4b19      	ldr	r3, [pc, #100]	; (8000d6c <MX_TIM1_Init+0x98>)
 8000d06:	2232      	movs	r2, #50	; 0x32
 8000d08:	60da      	str	r2, [r3, #12]
  htim1.Init.ClockDivision = TIM_CLOCKDIVISION_DIV1;
 8000d0a:	4b18      	ldr	r3, [pc, #96]	; (8000d6c <MX_TIM1_Init+0x98>)
 8000d0c:	2200      	movs	r2, #0
 8000d0e:	611a      	str	r2, [r3, #16]
  htim1.Init.RepetitionCounter = 0;
 8000d10:	4b16      	ldr	r3, [pc, #88]	; (8000d6c <MX_TIM1_Init+0x98>)
 8000d12:	2200      	movs	r2, #0
 8000d14:	615a      	str	r2, [r3, #20]
  htim1.Init.AutoReloadPreload = TIM_AUTORELOAD_PRELOAD_DISABLE;
 8000d16:	4b15      	ldr	r3, [pc, #84]	; (8000d6c <MX_TIM1_Init+0x98>)
 8000d18:	2200      	movs	r2, #0
 8000d1a:	619a      	str	r2, [r3, #24]
  if (HAL_TIM_Base_Init(&htim1) != HAL_OK)
 8000d1c:	4813      	ldr	r0, [pc, #76]	; (8000d6c <MX_TIM1_Init+0x98>)
 8000d1e:	f000 fa0a 	bl	8001136 <HAL_TIM_Base_Init>
 8000d22:	4603      	mov	r3, r0
 8000d24:	2b00      	cmp	r3, #0
 8000d26:	d001      	beq.n	8000d2c <MX_TIM1_Init+0x58>
  {
    Error_Handler();
 8000d28:	f7ff ff04 	bl	8000b34 <Error_Handler>
  }
  sClockSourceConfig.ClockSource = TIM_CLOCKSOURCE_INTERNAL;
 8000d2c:	f44f 5380 	mov.w	r3, #4096	; 0x1000
 8000d30:	60bb      	str	r3, [r7, #8]
  if (HAL_TIM_ConfigClockSource(&htim1, &sClockSourceConfig) != HAL_OK)
 8000d32:	f107 0308 	add.w	r3, r7, #8
 8000d36:	4619      	mov	r1, r3
 8000d38:	480c      	ldr	r0, [pc, #48]	; (8000d6c <MX_TIM1_Init+0x98>)
 8000d3a:	f000 fb53 	bl	80013e4 <HAL_TIM_ConfigClockSource>
 8000d3e:	4603      	mov	r3, r0
 8000d40:	2b00      	cmp	r3, #0
 8000d42:	d001      	beq.n	8000d48 <MX_TIM1_Init+0x74>
  {
    Error_Handler();
 8000d44:	f7ff fef6 	bl	8000b34 <Error_Handler>
  }
  sMasterConfig.MasterOutputTrigger = TIM_TRGO_RESET;
 8000d48:	2300      	movs	r3, #0
 8000d4a:	603b      	str	r3, [r7, #0]
  sMasterConfig.MasterSlaveMode = TIM_MASTERSLAVEMODE_DISABLE;
 8000d4c:	2300      	movs	r3, #0
 8000d4e:	607b      	str	r3, [r7, #4]
  if (HAL_TIMEx_MasterConfigSynchronization(&htim1, &sMasterConfig) != HAL_OK)
 8000d50:	463b      	mov	r3, r7
 8000d52:	4619      	mov	r1, r3
 8000d54:	4805      	ldr	r0, [pc, #20]	; (8000d6c <MX_TIM1_Init+0x98>)
 8000d56:	f000 fd79 	bl	800184c <HAL_TIMEx_MasterConfigSynchronization>
 8000d5a:	4603      	mov	r3, r0
 8000d5c:	2b00      	cmp	r3, #0
 8000d5e:	d001      	beq.n	8000d64 <MX_TIM1_Init+0x90>
  {
    Error_Handler();
 8000d60:	f7ff fee8 	bl	8000b34 <Error_Handler>
  }
  /* USER CODE BEGIN TIM1_Init 2 */

  /* USER CODE END TIM1_Init 2 */

}
 8000d64:	bf00      	nop
 8000d66:	3718      	adds	r7, #24
 8000d68:	46bd      	mov	sp, r7
 8000d6a:	bd80      	pop	{r7, pc}
 8000d6c:	2000002c 	.word	0x2000002c
 8000d70:	40010000 	.word	0x40010000

08000d74 <HAL_TIM_Base_MspInit>:

void HAL_TIM_Base_MspInit(TIM_HandleTypeDef* tim_baseHandle)
{
 8000d74:	b580      	push	{r7, lr}
 8000d76:	b084      	sub	sp, #16
 8000d78:	af00      	add	r7, sp, #0
 8000d7a:	6078      	str	r0, [r7, #4]

  if(tim_baseHandle->Instance==TIM1)
 8000d7c:	687b      	ldr	r3, [r7, #4]
 8000d7e:	681b      	ldr	r3, [r3, #0]
 8000d80:	4a1a      	ldr	r2, [pc, #104]	; (8000dec <HAL_TIM_Base_MspInit+0x78>)
 8000d82:	4293      	cmp	r3, r2
 8000d84:	d12d      	bne.n	8000de2 <HAL_TIM_Base_MspInit+0x6e>
  {
  /* USER CODE BEGIN TIM1_MspInit 0 */

  /* USER CODE END TIM1_MspInit 0 */
    /* TIM1 clock enable */
    __HAL_RCC_TIM1_CLK_ENABLE();
 8000d86:	2300      	movs	r3, #0
 8000d88:	60fb      	str	r3, [r7, #12]
 8000d8a:	4b19      	ldr	r3, [pc, #100]	; (8000df0 <HAL_TIM_Base_MspInit+0x7c>)
 8000d8c:	6c5b      	ldr	r3, [r3, #68]	; 0x44
 8000d8e:	4a18      	ldr	r2, [pc, #96]	; (8000df0 <HAL_TIM_Base_MspInit+0x7c>)
 8000d90:	f043 0301 	orr.w	r3, r3, #1
 8000d94:	6453      	str	r3, [r2, #68]	; 0x44
 8000d96:	4b16      	ldr	r3, [pc, #88]	; (8000df0 <HAL_TIM_Base_MspInit+0x7c>)
 8000d98:	6c5b      	ldr	r3, [r3, #68]	; 0x44
 8000d9a:	f003 0301 	and.w	r3, r3, #1
 8000d9e:	60fb      	str	r3, [r7, #12]
 8000da0:	68fb      	ldr	r3, [r7, #12]

    /* TIM1 interrupt Init */
    HAL_NVIC_SetPriority(TIM1_BRK_TIM9_IRQn, 0, 0);
 8000da2:	2200      	movs	r2, #0
 8000da4:	2100      	movs	r1, #0
 8000da6:	2018      	movs	r0, #24
 8000da8:	f000 f98f 	bl	80010ca <HAL_NVIC_SetPriority>
    HAL_NVIC_EnableIRQ(TIM1_BRK_TIM9_IRQn);
 8000dac:	2018      	movs	r0, #24
 8000dae:	f000 f9a8 	bl	8001102 <HAL_NVIC_EnableIRQ>
    HAL_NVIC_SetPriority(TIM1_UP_TIM10_IRQn, 0, 0);
 8000db2:	2200      	movs	r2, #0
 8000db4:	2100      	movs	r1, #0
 8000db6:	2019      	movs	r0, #25
 8000db8:	f000 f987 	bl	80010ca <HAL_NVIC_SetPriority>
    HAL_NVIC_EnableIRQ(TIM1_UP_TIM10_IRQn);
 8000dbc:	2019      	movs	r0, #25
 8000dbe:	f000 f9a0 	bl	8001102 <HAL_NVIC_EnableIRQ>
    HAL_NVIC_SetPriority(TIM1_TRG_COM_TIM11_IRQn, 0, 0);
 8000dc2:	2200      	movs	r2, #0
 8000dc4:	2100      	movs	r1, #0
 8000dc6:	201a      	movs	r0, #26
 8000dc8:	f000 f97f 	bl	80010ca <HAL_NVIC_SetPriority>
    HAL_NVIC_EnableIRQ(TIM1_TRG_COM_TIM11_IRQn);
 8000dcc:	201a      	movs	r0, #26
 8000dce:	f000 f998 	bl	8001102 <HAL_NVIC_EnableIRQ>
    HAL_NVIC_SetPriority(TIM1_CC_IRQn, 0, 0);
 8000dd2:	2200      	movs	r2, #0
 8000dd4:	2100      	movs	r1, #0
 8000dd6:	201b      	movs	r0, #27
 8000dd8:	f000 f977 	bl	80010ca <HAL_NVIC_SetPriority>
    HAL_NVIC_EnableIRQ(TIM1_CC_IRQn);
 8000ddc:	201b      	movs	r0, #27
 8000dde:	f000 f990 	bl	8001102 <HAL_NVIC_EnableIRQ>
  /* USER CODE BEGIN TIM1_MspInit 1 */

  /* USER CODE END TIM1_MspInit 1 */
  }
}
 8000de2:	bf00      	nop
 8000de4:	3710      	adds	r7, #16
 8000de6:	46bd      	mov	sp, r7
 8000de8:	bd80      	pop	{r7, pc}
 8000dea:	bf00      	nop
 8000dec:	40010000 	.word	0x40010000
 8000df0:	40023800 	.word	0x40023800

08000df4 <Reset_Handler>:

  .section .text.Reset_Handler
  .weak Reset_Handler
  .type Reset_Handler, %function
Reset_Handler:
  ldr   r0, =_estack
 8000df4:	480d      	ldr	r0, [pc, #52]	; (8000e2c <LoopForever+0x2>)
  mov   sp, r0          /* set stack pointer */
 8000df6:	4685      	mov	sp, r0
/* Call the clock system initialization function.*/
  bl  SystemInit
 8000df8:	f7ff ff5a 	bl	8000cb0 <SystemInit>

/* Copy the data segment initializers from flash to SRAM */
  ldr r0, =_sdata
 8000dfc:	480c      	ldr	r0, [pc, #48]	; (8000e30 <LoopForever+0x6>)
  ldr r1, =_edata
 8000dfe:	490d      	ldr	r1, [pc, #52]	; (8000e34 <LoopForever+0xa>)
  ldr r2, =_sidata
 8000e00:	4a0d      	ldr	r2, [pc, #52]	; (8000e38 <LoopForever+0xe>)
  movs r3, #0
 8000e02:	2300      	movs	r3, #0
  b LoopCopyDataInit
 8000e04:	e002      	b.n	8000e0c <LoopCopyDataInit>

08000e06 <CopyDataInit>:

CopyDataInit:
  ldr r4, [r2, r3]
 8000e06:	58d4      	ldr	r4, [r2, r3]
  str r4, [r0, r3]
 8000e08:	50c4      	str	r4, [r0, r3]
  adds r3, r3, #4
 8000e0a:	3304      	adds	r3, #4

08000e0c <LoopCopyDataInit>:

LoopCopyDataInit:
  adds r4, r0, r3
 8000e0c:	18c4      	adds	r4, r0, r3
  cmp r4, r1
 8000e0e:	428c      	cmp	r4, r1
  bcc CopyDataInit
 8000e10:	d3f9      	bcc.n	8000e06 <CopyDataInit>

/* Zero fill the bss segment. */
  ldr r2, =_sbss
 8000e12:	4a0a      	ldr	r2, [pc, #40]	; (8000e3c <LoopForever+0x12>)
  ldr r4, =_ebss
 8000e14:	4c0a      	ldr	r4, [pc, #40]	; (8000e40 <LoopForever+0x16>)
  movs r3, #0
 8000e16:	2300      	movs	r3, #0
  b LoopFillZerobss
 8000e18:	e001      	b.n	8000e1e <LoopFillZerobss>

08000e1a <FillZerobss>:

FillZerobss:
  str  r3, [r2]
 8000e1a:	6013      	str	r3, [r2, #0]
  adds r2, r2, #4
 8000e1c:	3204      	adds	r2, #4

08000e1e <LoopFillZerobss>:

LoopFillZerobss:
  cmp r2, r4
 8000e1e:	42a2      	cmp	r2, r4
  bcc FillZerobss
 8000e20:	d3fb      	bcc.n	8000e1a <FillZerobss>

/* Call static constructors */
  bl __libc_init_array
 8000e22:	f001 f989 	bl	8002138 <__libc_init_array>
/* Call the application's entry point.*/
  bl main
 8000e26:	f7ff fd41 	bl	80008ac <main>

08000e2a <LoopForever>:

LoopForever:
    b LoopForever
 8000e2a:	e7fe      	b.n	8000e2a <LoopForever>
  ldr   r0, =_estack
 8000e2c:	20020000 	.word	0x20020000
  ldr r0, =_sdata
 8000e30:	20000000 	.word	0x20000000
  ldr r1, =_edata
 8000e34:	2000000c 	.word	0x2000000c
  ldr r2, =_sidata
 8000e38:	080021a0 	.word	0x080021a0
  ldr r2, =_sbss
 8000e3c:	2000000c 	.word	0x2000000c
  ldr r4, =_ebss
 8000e40:	20000078 	.word	0x20000078

08000e44 <ADC_IRQHandler>:
 * @retval : None
*/
  .section .text.Default_Handler,"ax",%progbits
Default_Handler:
Infinite_Loop:
  b Infinite_Loop
 8000e44:	e7fe      	b.n	8000e44 <ADC_IRQHandler>
	...

08000e48 <HAL_Init>:
  *         need to ensure that the SysTick time base is always set to 1 millisecond
  *         to have correct HAL operation.
  * @retval HAL status
  */
HAL_StatusTypeDef HAL_Init(void)
{
 8000e48:	b580      	push	{r7, lr}
 8000e4a:	af00      	add	r7, sp, #0
  /* Configure Flash prefetch, Instruction cache, Data cache */ 
#if (INSTRUCTION_CACHE_ENABLE != 0U)
  __HAL_FLASH_INSTRUCTION_CACHE_ENABLE();
 8000e4c:	4b0e      	ldr	r3, [pc, #56]	; (8000e88 <HAL_Init+0x40>)
 8000e4e:	681b      	ldr	r3, [r3, #0]
 8000e50:	4a0d      	ldr	r2, [pc, #52]	; (8000e88 <HAL_Init+0x40>)
 8000e52:	f443 7300 	orr.w	r3, r3, #512	; 0x200
 8000e56:	6013      	str	r3, [r2, #0]
#endif /* INSTRUCTION_CACHE_ENABLE */

#if (DATA_CACHE_ENABLE != 0U)
  __HAL_FLASH_DATA_CACHE_ENABLE();
 8000e58:	4b0b      	ldr	r3, [pc, #44]	; (8000e88 <HAL_Init+0x40>)
 8000e5a:	681b      	ldr	r3, [r3, #0]
 8000e5c:	4a0a      	ldr	r2, [pc, #40]	; (8000e88 <HAL_Init+0x40>)
 8000e5e:	f443 6380 	orr.w	r3, r3, #1024	; 0x400
 8000e62:	6013      	str	r3, [r2, #0]
#endif /* DATA_CACHE_ENABLE */

#if (PREFETCH_ENABLE != 0U)
  __HAL_FLASH_PREFETCH_BUFFER_ENABLE();
 8000e64:	4b08      	ldr	r3, [pc, #32]	; (8000e88 <HAL_Init+0x40>)
 8000e66:	681b      	ldr	r3, [r3, #0]
 8000e68:	4a07      	ldr	r2, [pc, #28]	; (8000e88 <HAL_Init+0x40>)
 8000e6a:	f443 7380 	orr.w	r3, r3, #256	; 0x100
 8000e6e:	6013      	str	r3, [r2, #0]
#endif /* PREFETCH_ENABLE */

  /* Set Interrupt Group Priority */
  HAL_NVIC_SetPriorityGrouping(NVIC_PRIORITYGROUP_4);
 8000e70:	2003      	movs	r0, #3
 8000e72:	f000 f91f 	bl	80010b4 <HAL_NVIC_SetPriorityGrouping>

  /* Use systick as time base source and configure 1ms tick (default clock after Reset is HSI) */
  HAL_InitTick(TICK_INT_PRIORITY);
 8000e76:	200f      	movs	r0, #15
 8000e78:	f000 f808 	bl	8000e8c <HAL_InitTick>

  /* Init the low level hardware */
  HAL_MspInit();
 8000e7c:	f7ff fe60 	bl	8000b40 <HAL_MspInit>

  /* Return function status */
  return HAL_OK;
 8000e80:	2300      	movs	r3, #0
}
 8000e82:	4618      	mov	r0, r3
 8000e84:	bd80      	pop	{r7, pc}
 8000e86:	bf00      	nop
 8000e88:	40023c00 	.word	0x40023c00

08000e8c <HAL_InitTick>:
  *       implementation  in user file.
  * @param TickPriority Tick interrupt priority.
  * @retval HAL status
  */
__weak HAL_StatusTypeDef HAL_InitTick(uint32_t TickPriority)
{
 8000e8c:	b580      	push	{r7, lr}
 8000e8e:	b082      	sub	sp, #8
 8000e90:	af00      	add	r7, sp, #0
 8000e92:	6078      	str	r0, [r7, #4]
  /* Configure the SysTick to have interrupt in 1ms time basis*/
  if (HAL_SYSTICK_Config(SystemCoreClock / (1000U / uwTickFreq)) > 0U)
 8000e94:	4b12      	ldr	r3, [pc, #72]	; (8000ee0 <HAL_InitTick+0x54>)
 8000e96:	681a      	ldr	r2, [r3, #0]
 8000e98:	4b12      	ldr	r3, [pc, #72]	; (8000ee4 <HAL_InitTick+0x58>)
 8000e9a:	781b      	ldrb	r3, [r3, #0]
 8000e9c:	4619      	mov	r1, r3
 8000e9e:	f44f 737a 	mov.w	r3, #1000	; 0x3e8
 8000ea2:	fbb3 f3f1 	udiv	r3, r3, r1
 8000ea6:	fbb2 f3f3 	udiv	r3, r2, r3
 8000eaa:	4618      	mov	r0, r3
 8000eac:	f000 f937 	bl	800111e <HAL_SYSTICK_Config>
 8000eb0:	4603      	mov	r3, r0
 8000eb2:	2b00      	cmp	r3, #0
 8000eb4:	d001      	beq.n	8000eba <HAL_InitTick+0x2e>
  {
    return HAL_ERROR;
 8000eb6:	2301      	movs	r3, #1
 8000eb8:	e00e      	b.n	8000ed8 <HAL_InitTick+0x4c>
  }

  /* Configure the SysTick IRQ priority */
  if (TickPriority < (1UL << __NVIC_PRIO_BITS))
 8000eba:	687b      	ldr	r3, [r7, #4]
 8000ebc:	2b0f      	cmp	r3, #15
 8000ebe:	d80a      	bhi.n	8000ed6 <HAL_InitTick+0x4a>
  {
    HAL_NVIC_SetPriority(SysTick_IRQn, TickPriority, 0U);
 8000ec0:	2200      	movs	r2, #0
 8000ec2:	6879      	ldr	r1, [r7, #4]
 8000ec4:	f04f 30ff 	mov.w	r0, #4294967295
 8000ec8:	f000 f8ff 	bl	80010ca <HAL_NVIC_SetPriority>
    uwTickPrio = TickPriority;
 8000ecc:	4a06      	ldr	r2, [pc, #24]	; (8000ee8 <HAL_InitTick+0x5c>)
 8000ece:	687b      	ldr	r3, [r7, #4]
 8000ed0:	6013      	str	r3, [r2, #0]
  {
    return HAL_ERROR;
  }

  /* Return function status */
  return HAL_OK;
 8000ed2:	2300      	movs	r3, #0
 8000ed4:	e000      	b.n	8000ed8 <HAL_InitTick+0x4c>
    return HAL_ERROR;
 8000ed6:	2301      	movs	r3, #1
}
 8000ed8:	4618      	mov	r0, r3
 8000eda:	3708      	adds	r7, #8
 8000edc:	46bd      	mov	sp, r7
 8000ede:	bd80      	pop	{r7, pc}
 8000ee0:	20000000 	.word	0x20000000
 8000ee4:	20000008 	.word	0x20000008
 8000ee8:	20000004 	.word	0x20000004

08000eec <HAL_IncTick>:
 * @note This function is declared as __weak to be overwritten in case of other 
  *      implementations in user file.
  * @retval None
  */
__weak void HAL_IncTick(void)
{
 8000eec:	b480      	push	{r7}
 8000eee:	af00      	add	r7, sp, #0
  uwTick += uwTickFreq;
 8000ef0:	4b06      	ldr	r3, [pc, #24]	; (8000f0c <HAL_IncTick+0x20>)
 8000ef2:	781b      	ldrb	r3, [r3, #0]
 8000ef4:	461a      	mov	r2, r3
 8000ef6:	4b06      	ldr	r3, [pc, #24]	; (8000f10 <HAL_IncTick+0x24>)
 8000ef8:	681b      	ldr	r3, [r3, #0]
 8000efa:	4413      	add	r3, r2
 8000efc:	4a04      	ldr	r2, [pc, #16]	; (8000f10 <HAL_IncTick+0x24>)
 8000efe:	6013      	str	r3, [r2, #0]
}
 8000f00:	bf00      	nop
 8000f02:	46bd      	mov	sp, r7
 8000f04:	f85d 7b04 	ldr.w	r7, [sp], #4
 8000f08:	4770      	bx	lr
 8000f0a:	bf00      	nop
 8000f0c:	20000008 	.word	0x20000008
 8000f10:	20000074 	.word	0x20000074

08000f14 <__NVIC_SetPriorityGrouping>:
{
 8000f14:	b480      	push	{r7}
 8000f16:	b085      	sub	sp, #20
 8000f18:	af00      	add	r7, sp, #0
 8000f1a:	6078      	str	r0, [r7, #4]
  uint32_t PriorityGroupTmp = (PriorityGroup & (uint32_t)0x07UL);             /* only values 0..7 are used          */
 8000f1c:	687b      	ldr	r3, [r7, #4]
 8000f1e:	f003 0307 	and.w	r3, r3, #7
 8000f22:	60fb      	str	r3, [r7, #12]
  reg_value  =  SCB->AIRCR;                                                   /* read old register configuration    */
 8000f24:	4b0c      	ldr	r3, [pc, #48]	; (8000f58 <__NVIC_SetPriorityGrouping+0x44>)
 8000f26:	68db      	ldr	r3, [r3, #12]
 8000f28:	60bb      	str	r3, [r7, #8]
  reg_value &= ~((uint32_t)(SCB_AIRCR_VECTKEY_Msk | SCB_AIRCR_PRIGROUP_Msk)); /* clear bits to change               */
 8000f2a:	68ba      	ldr	r2, [r7, #8]
 8000f2c:	f64f 03ff 	movw	r3, #63743	; 0xf8ff
 8000f30:	4013      	ands	r3, r2
 8000f32:	60bb      	str	r3, [r7, #8]
                (PriorityGroupTmp << SCB_AIRCR_PRIGROUP_Pos)  );              /* Insert write key and priority group */
 8000f34:	68fb      	ldr	r3, [r7, #12]
 8000f36:	021a      	lsls	r2, r3, #8
                ((uint32_t)0x5FAUL << SCB_AIRCR_VECTKEY_Pos) |
 8000f38:	68bb      	ldr	r3, [r7, #8]
 8000f3a:	4313      	orrs	r3, r2
  reg_value  =  (reg_value                                   |
 8000f3c:	f043 63bf 	orr.w	r3, r3, #100139008	; 0x5f80000
 8000f40:	f443 3300 	orr.w	r3, r3, #131072	; 0x20000
 8000f44:	60bb      	str	r3, [r7, #8]
  SCB->AIRCR =  reg_value;
 8000f46:	4a04      	ldr	r2, [pc, #16]	; (8000f58 <__NVIC_SetPriorityGrouping+0x44>)
 8000f48:	68bb      	ldr	r3, [r7, #8]
 8000f4a:	60d3      	str	r3, [r2, #12]
}
 8000f4c:	bf00      	nop
 8000f4e:	3714      	adds	r7, #20
 8000f50:	46bd      	mov	sp, r7
 8000f52:	f85d 7b04 	ldr.w	r7, [sp], #4
 8000f56:	4770      	bx	lr
 8000f58:	e000ed00 	.word	0xe000ed00

08000f5c <__NVIC_GetPriorityGrouping>:
{
 8000f5c:	b480      	push	{r7}
 8000f5e:	af00      	add	r7, sp, #0
  return ((uint32_t)((SCB->AIRCR & SCB_AIRCR_PRIGROUP_Msk) >> SCB_AIRCR_PRIGROUP_Pos));
 8000f60:	4b04      	ldr	r3, [pc, #16]	; (8000f74 <__NVIC_GetPriorityGrouping+0x18>)
 8000f62:	68db      	ldr	r3, [r3, #12]
 8000f64:	0a1b      	lsrs	r3, r3, #8
 8000f66:	f003 0307 	and.w	r3, r3, #7
}
 8000f6a:	4618      	mov	r0, r3
 8000f6c:	46bd      	mov	sp, r7
 8000f6e:	f85d 7b04 	ldr.w	r7, [sp], #4
 8000f72:	4770      	bx	lr
 8000f74:	e000ed00 	.word	0xe000ed00

08000f78 <__NVIC_EnableIRQ>:
{
 8000f78:	b480      	push	{r7}
 8000f7a:	b083      	sub	sp, #12
 8000f7c:	af00      	add	r7, sp, #0
 8000f7e:	4603      	mov	r3, r0
 8000f80:	71fb      	strb	r3, [r7, #7]
  if ((int32_t)(IRQn) >= 0)
 8000f82:	f997 3007 	ldrsb.w	r3, [r7, #7]
 8000f86:	2b00      	cmp	r3, #0
 8000f88:	db0b      	blt.n	8000fa2 <__NVIC_EnableIRQ+0x2a>
    NVIC->ISER[(((uint32_t)IRQn) >> 5UL)] = (uint32_t)(1UL << (((uint32_t)IRQn) & 0x1FUL));
 8000f8a:	79fb      	ldrb	r3, [r7, #7]
 8000f8c:	f003 021f 	and.w	r2, r3, #31
 8000f90:	4907      	ldr	r1, [pc, #28]	; (8000fb0 <__NVIC_EnableIRQ+0x38>)
 8000f92:	f997 3007 	ldrsb.w	r3, [r7, #7]
 8000f96:	095b      	lsrs	r3, r3, #5
 8000f98:	2001      	movs	r0, #1
 8000f9a:	fa00 f202 	lsl.w	r2, r0, r2
 8000f9e:	f841 2023 	str.w	r2, [r1, r3, lsl #2]
}
 8000fa2:	bf00      	nop
 8000fa4:	370c      	adds	r7, #12
 8000fa6:	46bd      	mov	sp, r7
 8000fa8:	f85d 7b04 	ldr.w	r7, [sp], #4
 8000fac:	4770      	bx	lr
 8000fae:	bf00      	nop
 8000fb0:	e000e100 	.word	0xe000e100

08000fb4 <__NVIC_SetPriority>:
{
 8000fb4:	b480      	push	{r7}
 8000fb6:	b083      	sub	sp, #12
 8000fb8:	af00      	add	r7, sp, #0
 8000fba:	4603      	mov	r3, r0
 8000fbc:	6039      	str	r1, [r7, #0]
 8000fbe:	71fb      	strb	r3, [r7, #7]
  if ((int32_t)(IRQn) >= 0)
 8000fc0:	f997 3007 	ldrsb.w	r3, [r7, #7]
 8000fc4:	2b00      	cmp	r3, #0
 8000fc6:	db0a      	blt.n	8000fde <__NVIC_SetPriority+0x2a>
    NVIC->IP[((uint32_t)IRQn)]               = (uint8_t)((priority << (8U - __NVIC_PRIO_BITS)) & (uint32_t)0xFFUL);
 8000fc8:	683b      	ldr	r3, [r7, #0]
 8000fca:	b2da      	uxtb	r2, r3
 8000fcc:	490c      	ldr	r1, [pc, #48]	; (8001000 <__NVIC_SetPriority+0x4c>)
 8000fce:	f997 3007 	ldrsb.w	r3, [r7, #7]
 8000fd2:	0112      	lsls	r2, r2, #4
 8000fd4:	b2d2      	uxtb	r2, r2
 8000fd6:	440b      	add	r3, r1
 8000fd8:	f883 2300 	strb.w	r2, [r3, #768]	; 0x300
}
 8000fdc:	e00a      	b.n	8000ff4 <__NVIC_SetPriority+0x40>
    SCB->SHP[(((uint32_t)IRQn) & 0xFUL)-4UL] = (uint8_t)((priority << (8U - __NVIC_PRIO_BITS)) & (uint32_t)0xFFUL);
 8000fde:	683b      	ldr	r3, [r7, #0]
 8000fe0:	b2da      	uxtb	r2, r3
 8000fe2:	4908      	ldr	r1, [pc, #32]	; (8001004 <__NVIC_SetPriority+0x50>)
 8000fe4:	79fb      	ldrb	r3, [r7, #7]
 8000fe6:	f003 030f 	and.w	r3, r3, #15
 8000fea:	3b04      	subs	r3, #4
 8000fec:	0112      	lsls	r2, r2, #4
 8000fee:	b2d2      	uxtb	r2, r2
 8000ff0:	440b      	add	r3, r1
 8000ff2:	761a      	strb	r2, [r3, #24]
}
 8000ff4:	bf00      	nop
 8000ff6:	370c      	adds	r7, #12
 8000ff8:	46bd      	mov	sp, r7
 8000ffa:	f85d 7b04 	ldr.w	r7, [sp], #4
 8000ffe:	4770      	bx	lr
 8001000:	e000e100 	.word	0xe000e100
 8001004:	e000ed00 	.word	0xe000ed00

08001008 <NVIC_EncodePriority>:
{
 8001008:	b480      	push	{r7}
 800100a:	b089      	sub	sp, #36	; 0x24
 800100c:	af00      	add	r7, sp, #0
 800100e:	60f8      	str	r0, [r7, #12]
 8001010:	60b9      	str	r1, [r7, #8]
 8001012:	607a      	str	r2, [r7, #4]
  uint32_t PriorityGroupTmp = (PriorityGroup & (uint32_t)0x07UL);   /* only values 0..7 are used          */
 8001014:	68fb      	ldr	r3, [r7, #12]
 8001016:	f003 0307 	and.w	r3, r3, #7
 800101a:	61fb      	str	r3, [r7, #28]
  PreemptPriorityBits = ((7UL - PriorityGroupTmp) > (uint32_t)(__NVIC_PRIO_BITS)) ? (uint32_t)(__NVIC_PRIO_BITS) : (uint32_t)(7UL - PriorityGroupTmp);
 800101c:	69fb      	ldr	r3, [r7, #28]
 800101e:	f1c3 0307 	rsb	r3, r3, #7
 8001022:	2b04      	cmp	r3, #4
 8001024:	bf28      	it	cs
 8001026:	2304      	movcs	r3, #4
 8001028:	61bb      	str	r3, [r7, #24]
  SubPriorityBits     = ((PriorityGroupTmp + (uint32_t)(__NVIC_PRIO_BITS)) < (uint32_t)7UL) ? (uint32_t)0UL : (uint32_t)((PriorityGroupTmp - 7UL) + (uint32_t)(__NVIC_PRIO_BITS));
 800102a:	69fb      	ldr	r3, [r7, #28]
 800102c:	3304      	adds	r3, #4
 800102e:	2b06      	cmp	r3, #6
 8001030:	d902      	bls.n	8001038 <NVIC_EncodePriority+0x30>
 8001032:	69fb      	ldr	r3, [r7, #28]
 8001034:	3b03      	subs	r3, #3
 8001036:	e000      	b.n	800103a <NVIC_EncodePriority+0x32>
 8001038:	2300      	movs	r3, #0
 800103a:	617b      	str	r3, [r7, #20]
           ((PreemptPriority & (uint32_t)((1UL << (PreemptPriorityBits)) - 1UL)) << SubPriorityBits) |
 800103c:	f04f 32ff 	mov.w	r2, #4294967295
 8001040:	69bb      	ldr	r3, [r7, #24]
 8001042:	fa02 f303 	lsl.w	r3, r2, r3
 8001046:	43da      	mvns	r2, r3
 8001048:	68bb      	ldr	r3, [r7, #8]
 800104a:	401a      	ands	r2, r3
 800104c:	697b      	ldr	r3, [r7, #20]
 800104e:	409a      	lsls	r2, r3
           ((SubPriority     & (uint32_t)((1UL << (SubPriorityBits    )) - 1UL)))
 8001050:	f04f 31ff 	mov.w	r1, #4294967295
 8001054:	697b      	ldr	r3, [r7, #20]
 8001056:	fa01 f303 	lsl.w	r3, r1, r3
 800105a:	43d9      	mvns	r1, r3
 800105c:	687b      	ldr	r3, [r7, #4]
 800105e:	400b      	ands	r3, r1
           ((PreemptPriority & (uint32_t)((1UL << (PreemptPriorityBits)) - 1UL)) << SubPriorityBits) |
 8001060:	4313      	orrs	r3, r2
}
 8001062:	4618      	mov	r0, r3
 8001064:	3724      	adds	r7, #36	; 0x24
 8001066:	46bd      	mov	sp, r7
 8001068:	f85d 7b04 	ldr.w	r7, [sp], #4
 800106c:	4770      	bx	lr
	...

08001070 <SysTick_Config>:
  \note    When the variable <b>__Vendor_SysTickConfig</b> is set to 1, then the
           function <b>SysTick_Config</b> is not included. In this case, the file <b><i>device</i>.h</b>
           must contain a vendor-specific implementation of this function.
 */
__STATIC_INLINE uint32_t SysTick_Config(uint32_t ticks)
{
 8001070:	b580      	push	{r7, lr}
 8001072:	b082      	sub	sp, #8
 8001074:	af00      	add	r7, sp, #0
 8001076:	6078      	str	r0, [r7, #4]
  if ((ticks - 1UL) > SysTick_LOAD_RELOAD_Msk)
 8001078:	687b      	ldr	r3, [r7, #4]
 800107a:	3b01      	subs	r3, #1
 800107c:	f1b3 7f80 	cmp.w	r3, #16777216	; 0x1000000
 8001080:	d301      	bcc.n	8001086 <SysTick_Config+0x16>
  {
    return (1UL);                                                   /* Reload value impossible */
 8001082:	2301      	movs	r3, #1
 8001084:	e00f      	b.n	80010a6 <SysTick_Config+0x36>
  }

  SysTick->LOAD  = (uint32_t)(ticks - 1UL);                         /* set reload register */
 8001086:	4a0a      	ldr	r2, [pc, #40]	; (80010b0 <SysTick_Config+0x40>)
 8001088:	687b      	ldr	r3, [r7, #4]
 800108a:	3b01      	subs	r3, #1
 800108c:	6053      	str	r3, [r2, #4]
  NVIC_SetPriority (SysTick_IRQn, (1UL << __NVIC_PRIO_BITS) - 1UL); /* set Priority for Systick Interrupt */
 800108e:	210f      	movs	r1, #15
 8001090:	f04f 30ff 	mov.w	r0, #4294967295
 8001094:	f7ff ff8e 	bl	8000fb4 <__NVIC_SetPriority>
  SysTick->VAL   = 0UL;                                             /* Load the SysTick Counter Value */
 8001098:	4b05      	ldr	r3, [pc, #20]	; (80010b0 <SysTick_Config+0x40>)
 800109a:	2200      	movs	r2, #0
 800109c:	609a      	str	r2, [r3, #8]
  SysTick->CTRL  = SysTick_CTRL_CLKSOURCE_Msk |
 800109e:	4b04      	ldr	r3, [pc, #16]	; (80010b0 <SysTick_Config+0x40>)
 80010a0:	2207      	movs	r2, #7
 80010a2:	601a      	str	r2, [r3, #0]
                   SysTick_CTRL_TICKINT_Msk   |
                   SysTick_CTRL_ENABLE_Msk;                         /* Enable SysTick IRQ and SysTick Timer */
  return (0UL);                                                     /* Function successful */
 80010a4:	2300      	movs	r3, #0
}
 80010a6:	4618      	mov	r0, r3
 80010a8:	3708      	adds	r7, #8
 80010aa:	46bd      	mov	sp, r7
 80010ac:	bd80      	pop	{r7, pc}
 80010ae:	bf00      	nop
 80010b0:	e000e010 	.word	0xe000e010

080010b4 <HAL_NVIC_SetPriorityGrouping>:
  * @note   When the NVIC_PriorityGroup_0 is selected, IRQ preemption is no more possible. 
  *         The pending IRQ priority will be managed only by the subpriority. 
  * @retval None
  */
void HAL_NVIC_SetPriorityGrouping(uint32_t PriorityGroup)
{
 80010b4:	b580      	push	{r7, lr}
 80010b6:	b082      	sub	sp, #8
 80010b8:	af00      	add	r7, sp, #0
 80010ba:	6078      	str	r0, [r7, #4]
  /* Check the parameters */
  assert_param(IS_NVIC_PRIORITY_GROUP(PriorityGroup));
  
  /* Set the PRIGROUP[10:8] bits according to the PriorityGroup parameter value */
  NVIC_SetPriorityGrouping(PriorityGroup);
 80010bc:	6878      	ldr	r0, [r7, #4]
 80010be:	f7ff ff29 	bl	8000f14 <__NVIC_SetPriorityGrouping>
}
 80010c2:	bf00      	nop
 80010c4:	3708      	adds	r7, #8
 80010c6:	46bd      	mov	sp, r7
 80010c8:	bd80      	pop	{r7, pc}

080010ca <HAL_NVIC_SetPriority>:
  *         This parameter can be a value between 0 and 15
  *         A lower priority value indicates a higher priority.          
  * @retval None
  */
void HAL_NVIC_SetPriority(IRQn_Type IRQn, uint32_t PreemptPriority, uint32_t SubPriority)
{ 
 80010ca:	b580      	push	{r7, lr}
 80010cc:	b086      	sub	sp, #24
 80010ce:	af00      	add	r7, sp, #0
 80010d0:	4603      	mov	r3, r0
 80010d2:	60b9      	str	r1, [r7, #8]
 80010d4:	607a      	str	r2, [r7, #4]
 80010d6:	73fb      	strb	r3, [r7, #15]
  uint32_t prioritygroup = 0x00U;
 80010d8:	2300      	movs	r3, #0
 80010da:	617b      	str	r3, [r7, #20]
  
  /* Check the parameters */
  assert_param(IS_NVIC_SUB_PRIORITY(SubPriority));
  assert_param(IS_NVIC_PREEMPTION_PRIORITY(PreemptPriority));
  
  prioritygroup = NVIC_GetPriorityGrouping();
 80010dc:	f7ff ff3e 	bl	8000f5c <__NVIC_GetPriorityGrouping>
 80010e0:	6178      	str	r0, [r7, #20]
  
  NVIC_SetPriority(IRQn, NVIC_EncodePriority(prioritygroup, PreemptPriority, SubPriority));
 80010e2:	687a      	ldr	r2, [r7, #4]
 80010e4:	68b9      	ldr	r1, [r7, #8]
 80010e6:	6978      	ldr	r0, [r7, #20]
 80010e8:	f7ff ff8e 	bl	8001008 <NVIC_EncodePriority>
 80010ec:	4602      	mov	r2, r0
 80010ee:	f997 300f 	ldrsb.w	r3, [r7, #15]
 80010f2:	4611      	mov	r1, r2
 80010f4:	4618      	mov	r0, r3
 80010f6:	f7ff ff5d 	bl	8000fb4 <__NVIC_SetPriority>
}
 80010fa:	bf00      	nop
 80010fc:	3718      	adds	r7, #24
 80010fe:	46bd      	mov	sp, r7
 8001100:	bd80      	pop	{r7, pc}

08001102 <HAL_NVIC_EnableIRQ>:
  *         This parameter can be an enumerator of IRQn_Type enumeration
  *         (For the complete STM32 Devices IRQ Channels list, please refer to the appropriate CMSIS device file (stm32f4xxxx.h))
  * @retval None
  */
void HAL_NVIC_EnableIRQ(IRQn_Type IRQn)
{
 8001102:	b580      	push	{r7, lr}
 8001104:	b082      	sub	sp, #8
 8001106:	af00      	add	r7, sp, #0
 8001108:	4603      	mov	r3, r0
 800110a:	71fb      	strb	r3, [r7, #7]
  /* Check the parameters */
  assert_param(IS_NVIC_DEVICE_IRQ(IRQn));
  
  /* Enable interrupt */
  NVIC_EnableIRQ(IRQn);
 800110c:	f997 3007 	ldrsb.w	r3, [r7, #7]
 8001110:	4618      	mov	r0, r3
 8001112:	f7ff ff31 	bl	8000f78 <__NVIC_EnableIRQ>
}
 8001116:	bf00      	nop
 8001118:	3708      	adds	r7, #8
 800111a:	46bd      	mov	sp, r7
 800111c:	bd80      	pop	{r7, pc}

0800111e <HAL_SYSTICK_Config>:
  * @param  TicksNumb Specifies the ticks Number of ticks between two interrupts.
  * @retval status:  - 0  Function succeeded.
  *                  - 1  Function failed.
  */
uint32_t HAL_SYSTICK_Config(uint32_t TicksNumb)
{
 800111e:	b580      	push	{r7, lr}
 8001120:	b082      	sub	sp, #8
 8001122:	af00      	add	r7, sp, #0
 8001124:	6078      	str	r0, [r7, #4]
   return SysTick_Config(TicksNumb);
 8001126:	6878      	ldr	r0, [r7, #4]
 8001128:	f7ff ffa2 	bl	8001070 <SysTick_Config>
 800112c:	4603      	mov	r3, r0
}
 800112e:	4618      	mov	r0, r3
 8001130:	3708      	adds	r7, #8
 8001132:	46bd      	mov	sp, r7
 8001134:	bd80      	pop	{r7, pc}

08001136 <HAL_TIM_Base_Init>:
  *         Ex: call @ref HAL_TIM_Base_DeInit() before HAL_TIM_Base_Init()
  * @param  htim TIM Base handle
  * @retval HAL status
  */
HAL_StatusTypeDef HAL_TIM_Base_Init(TIM_HandleTypeDef *htim)
{
 8001136:	b580      	push	{r7, lr}
 8001138:	b082      	sub	sp, #8
 800113a:	af00      	add	r7, sp, #0
 800113c:	6078      	str	r0, [r7, #4]
  /* Check the TIM handle allocation */
  if (htim == NULL)
 800113e:	687b      	ldr	r3, [r7, #4]
 8001140:	2b00      	cmp	r3, #0
 8001142:	d101      	bne.n	8001148 <HAL_TIM_Base_Init+0x12>
  {
    return HAL_ERROR;
 8001144:	2301      	movs	r3, #1
 8001146:	e041      	b.n	80011cc <HAL_TIM_Base_Init+0x96>
  assert_param(IS_TIM_INSTANCE(htim->Instance));
  assert_param(IS_TIM_COUNTER_MODE(htim->Init.CounterMode));
  assert_param(IS_TIM_CLOCKDIVISION_DIV(htim->Init.ClockDivision));
  assert_param(IS_TIM_AUTORELOAD_PRELOAD(htim->Init.AutoReloadPreload));

  if (htim->State == HAL_TIM_STATE_RESET)
 8001148:	687b      	ldr	r3, [r7, #4]
 800114a:	f893 303d 	ldrb.w	r3, [r3, #61]	; 0x3d
 800114e:	b2db      	uxtb	r3, r3
 8001150:	2b00      	cmp	r3, #0
 8001152:	d106      	bne.n	8001162 <HAL_TIM_Base_Init+0x2c>
  {
    /* Allocate lock resource and initialize it */
    htim->Lock = HAL_UNLOCKED;
 8001154:	687b      	ldr	r3, [r7, #4]
 8001156:	2200      	movs	r2, #0
 8001158:	f883 203c 	strb.w	r2, [r3, #60]	; 0x3c
    }
    /* Init the low level hardware : GPIO, CLOCK, NVIC */
    htim->Base_MspInitCallback(htim);
#else
    /* Init the low level hardware : GPIO, CLOCK, NVIC */
    HAL_TIM_Base_MspInit(htim);
 800115c:	6878      	ldr	r0, [r7, #4]
 800115e:	f7ff fe09 	bl	8000d74 <HAL_TIM_Base_MspInit>
#endif /* USE_HAL_TIM_REGISTER_CALLBACKS */
  }

  /* Set the TIM state */
  htim->State = HAL_TIM_STATE_BUSY;
 8001162:	687b      	ldr	r3, [r7, #4]
 8001164:	2202      	movs	r2, #2
 8001166:	f883 203d 	strb.w	r2, [r3, #61]	; 0x3d

  /* Set the Time Base configuration */
  TIM_Base_SetConfig(htim->Instance, &htim->Init);
 800116a:	687b      	ldr	r3, [r7, #4]
 800116c:	681a      	ldr	r2, [r3, #0]
 800116e:	687b      	ldr	r3, [r7, #4]
 8001170:	3304      	adds	r3, #4
 8001172:	4619      	mov	r1, r3
 8001174:	4610      	mov	r0, r2
 8001176:	f000 fa2f 	bl	80015d8 <TIM_Base_SetConfig>

  /* Initialize the DMA burst operation state */
  htim->DMABurstState = HAL_DMA_BURST_STATE_READY;
 800117a:	687b      	ldr	r3, [r7, #4]
 800117c:	2201      	movs	r2, #1
 800117e:	f883 2046 	strb.w	r2, [r3, #70]	; 0x46

  /* Initialize the TIM channels state */
  TIM_CHANNEL_STATE_SET_ALL(htim, HAL_TIM_CHANNEL_STATE_READY);
 8001182:	687b      	ldr	r3, [r7, #4]
 8001184:	2201      	movs	r2, #1
 8001186:	f883 203e 	strb.w	r2, [r3, #62]	; 0x3e
 800118a:	687b      	ldr	r3, [r7, #4]
 800118c:	2201      	movs	r2, #1
 800118e:	f883 203f 	strb.w	r2, [r3, #63]	; 0x3f
 8001192:	687b      	ldr	r3, [r7, #4]
 8001194:	2201      	movs	r2, #1
 8001196:	f883 2040 	strb.w	r2, [r3, #64]	; 0x40
 800119a:	687b      	ldr	r3, [r7, #4]
 800119c:	2201      	movs	r2, #1
 800119e:	f883 2041 	strb.w	r2, [r3, #65]	; 0x41
  TIM_CHANNEL_N_STATE_SET_ALL(htim, HAL_TIM_CHANNEL_STATE_READY);
 80011a2:	687b      	ldr	r3, [r7, #4]
 80011a4:	2201      	movs	r2, #1
 80011a6:	f883 2042 	strb.w	r2, [r3, #66]	; 0x42
 80011aa:	687b      	ldr	r3, [r7, #4]
 80011ac:	2201      	movs	r2, #1
 80011ae:	f883 2043 	strb.w	r2, [r3, #67]	; 0x43
 80011b2:	687b      	ldr	r3, [r7, #4]
 80011b4:	2201      	movs	r2, #1
 80011b6:	f883 2044 	strb.w	r2, [r3, #68]	; 0x44
 80011ba:	687b      	ldr	r3, [r7, #4]
 80011bc:	2201      	movs	r2, #1
 80011be:	f883 2045 	strb.w	r2, [r3, #69]	; 0x45

  /* Initialize the TIM state*/
  htim->State = HAL_TIM_STATE_READY;
 80011c2:	687b      	ldr	r3, [r7, #4]
 80011c4:	2201      	movs	r2, #1
 80011c6:	f883 203d 	strb.w	r2, [r3, #61]	; 0x3d

  return HAL_OK;
 80011ca:	2300      	movs	r3, #0
}
 80011cc:	4618      	mov	r0, r3
 80011ce:	3708      	adds	r7, #8
 80011d0:	46bd      	mov	sp, r7
 80011d2:	bd80      	pop	{r7, pc}

080011d4 <HAL_TIM_IRQHandler>:
  * @brief  This function handles TIM interrupts requests.
  * @param  htim TIM  handle
  * @retval None
  */
void HAL_TIM_IRQHandler(TIM_HandleTypeDef *htim)
{
 80011d4:	b580      	push	{r7, lr}
 80011d6:	b082      	sub	sp, #8
 80011d8:	af00      	add	r7, sp, #0
 80011da:	6078      	str	r0, [r7, #4]
  /* Capture compare 1 event */
  if (__HAL_TIM_GET_FLAG(htim, TIM_FLAG_CC1) != RESET)
 80011dc:	687b      	ldr	r3, [r7, #4]
 80011de:	681b      	ldr	r3, [r3, #0]
 80011e0:	691b      	ldr	r3, [r3, #16]
 80011e2:	f003 0302 	and.w	r3, r3, #2
 80011e6:	2b02      	cmp	r3, #2
 80011e8:	d122      	bne.n	8001230 <HAL_TIM_IRQHandler+0x5c>
  {
    if (__HAL_TIM_GET_IT_SOURCE(htim, TIM_IT_CC1) != RESET)
 80011ea:	687b      	ldr	r3, [r7, #4]
 80011ec:	681b      	ldr	r3, [r3, #0]
 80011ee:	68db      	ldr	r3, [r3, #12]
 80011f0:	f003 0302 	and.w	r3, r3, #2
 80011f4:	2b02      	cmp	r3, #2
 80011f6:	d11b      	bne.n	8001230 <HAL_TIM_IRQHandler+0x5c>
    {
      {
        __HAL_TIM_CLEAR_IT(htim, TIM_IT_CC1);
 80011f8:	687b      	ldr	r3, [r7, #4]
 80011fa:	681b      	ldr	r3, [r3, #0]
 80011fc:	f06f 0202 	mvn.w	r2, #2
 8001200:	611a      	str	r2, [r3, #16]
        htim->Channel = HAL_TIM_ACTIVE_CHANNEL_1;
 8001202:	687b      	ldr	r3, [r7, #4]
 8001204:	2201      	movs	r2, #1
 8001206:	771a      	strb	r2, [r3, #28]

        /* Input capture event */
        if ((htim->Instance->CCMR1 & TIM_CCMR1_CC1S) != 0x00U)
 8001208:	687b      	ldr	r3, [r7, #4]
 800120a:	681b      	ldr	r3, [r3, #0]
 800120c:	699b      	ldr	r3, [r3, #24]
 800120e:	f003 0303 	and.w	r3, r3, #3
 8001212:	2b00      	cmp	r3, #0
 8001214:	d003      	beq.n	800121e <HAL_TIM_IRQHandler+0x4a>
        {
#if (USE_HAL_TIM_REGISTER_CALLBACKS == 1)
          htim->IC_CaptureCallback(htim);
#else
          HAL_TIM_IC_CaptureCallback(htim);
 8001216:	6878      	ldr	r0, [r7, #4]
 8001218:	f000 f9bf 	bl	800159a <HAL_TIM_IC_CaptureCallback>
 800121c:	e005      	b.n	800122a <HAL_TIM_IRQHandler+0x56>
        {
#if (USE_HAL_TIM_REGISTER_CALLBACKS == 1)
          htim->OC_DelayElapsedCallback(htim);
          htim->PWM_PulseFinishedCallback(htim);
#else
          HAL_TIM_OC_DelayElapsedCallback(htim);
 800121e:	6878      	ldr	r0, [r7, #4]
 8001220:	f000 f9b1 	bl	8001586 <HAL_TIM_OC_DelayElapsedCallback>
          HAL_TIM_PWM_PulseFinishedCallback(htim);
 8001224:	6878      	ldr	r0, [r7, #4]
 8001226:	f000 f9c2 	bl	80015ae <HAL_TIM_PWM_PulseFinishedCallback>
#endif /* USE_HAL_TIM_REGISTER_CALLBACKS */
        }
        htim->Channel = HAL_TIM_ACTIVE_CHANNEL_CLEARED;
 800122a:	687b      	ldr	r3, [r7, #4]
 800122c:	2200      	movs	r2, #0
 800122e:	771a      	strb	r2, [r3, #28]
      }
    }
  }
  /* Capture compare 2 event */
  if (__HAL_TIM_GET_FLAG(htim, TIM_FLAG_CC2) != RESET)
 8001230:	687b      	ldr	r3, [r7, #4]
 8001232:	681b      	ldr	r3, [r3, #0]
 8001234:	691b      	ldr	r3, [r3, #16]
 8001236:	f003 0304 	and.w	r3, r3, #4
 800123a:	2b04      	cmp	r3, #4
 800123c:	d122      	bne.n	8001284 <HAL_TIM_IRQHandler+0xb0>
  {
    if (__HAL_TIM_GET_IT_SOURCE(htim, TIM_IT_CC2) != RESET)
 800123e:	687b      	ldr	r3, [r7, #4]
 8001240:	681b      	ldr	r3, [r3, #0]
 8001242:	68db      	ldr	r3, [r3, #12]
 8001244:	f003 0304 	and.w	r3, r3, #4
 8001248:	2b04      	cmp	r3, #4
 800124a:	d11b      	bne.n	8001284 <HAL_TIM_IRQHandler+0xb0>
    {
      __HAL_TIM_CLEAR_IT(htim, TIM_IT_CC2);
 800124c:	687b      	ldr	r3, [r7, #4]
 800124e:	681b      	ldr	r3, [r3, #0]
 8001250:	f06f 0204 	mvn.w	r2, #4
 8001254:	611a      	str	r2, [r3, #16]
      htim->Channel = HAL_TIM_ACTIVE_CHANNEL_2;
 8001256:	687b      	ldr	r3, [r7, #4]
 8001258:	2202      	movs	r2, #2
 800125a:	771a      	strb	r2, [r3, #28]
      /* Input capture event */
      if ((htim->Instance->CCMR1 & TIM_CCMR1_CC2S) != 0x00U)
 800125c:	687b      	ldr	r3, [r7, #4]
 800125e:	681b      	ldr	r3, [r3, #0]
 8001260:	699b      	ldr	r3, [r3, #24]
 8001262:	f403 7340 	and.w	r3, r3, #768	; 0x300
 8001266:	2b00      	cmp	r3, #0
 8001268:	d003      	beq.n	8001272 <HAL_TIM_IRQHandler+0x9e>
      {
#if (USE_HAL_TIM_REGISTER_CALLBACKS == 1)
        htim->IC_CaptureCallback(htim);
#else
        HAL_TIM_IC_CaptureCallback(htim);
 800126a:	6878      	ldr	r0, [r7, #4]
 800126c:	f000 f995 	bl	800159a <HAL_TIM_IC_CaptureCallback>
 8001270:	e005      	b.n	800127e <HAL_TIM_IRQHandler+0xaa>
      {
#if (USE_HAL_TIM_REGISTER_CALLBACKS == 1)
        htim->OC_DelayElapsedCallback(htim);
        htim->PWM_PulseFinishedCallback(htim);
#else
        HAL_TIM_OC_DelayElapsedCallback(htim);
 8001272:	6878      	ldr	r0, [r7, #4]
 8001274:	f000 f987 	bl	8001586 <HAL_TIM_OC_DelayElapsedCallback>
        HAL_TIM_PWM_PulseFinishedCallback(htim);
 8001278:	6878      	ldr	r0, [r7, #4]
 800127a:	f000 f998 	bl	80015ae <HAL_TIM_PWM_PulseFinishedCallback>
#endif /* USE_HAL_TIM_REGISTER_CALLBACKS */
      }
      htim->Channel = HAL_TIM_ACTIVE_CHANNEL_CLEARED;
 800127e:	687b      	ldr	r3, [r7, #4]
 8001280:	2200      	movs	r2, #0
 8001282:	771a      	strb	r2, [r3, #28]
    }
  }
  /* Capture compare 3 event */
  if (__HAL_TIM_GET_FLAG(htim, TIM_FLAG_CC3) != RESET)
 8001284:	687b      	ldr	r3, [r7, #4]
 8001286:	681b      	ldr	r3, [r3, #0]
 8001288:	691b      	ldr	r3, [r3, #16]
 800128a:	f003 0308 	and.w	r3, r3, #8
 800128e:	2b08      	cmp	r3, #8
 8001290:	d122      	bne.n	80012d8 <HAL_TIM_IRQHandler+0x104>
  {
    if (__HAL_TIM_GET_IT_SOURCE(htim, TIM_IT_CC3) != RESET)
 8001292:	687b      	ldr	r3, [r7, #4]
 8001294:	681b      	ldr	r3, [r3, #0]
 8001296:	68db      	ldr	r3, [r3, #12]
 8001298:	f003 0308 	and.w	r3, r3, #8
 800129c:	2b08      	cmp	r3, #8
 800129e:	d11b      	bne.n	80012d8 <HAL_TIM_IRQHandler+0x104>
    {
      __HAL_TIM_CLEAR_IT(htim, TIM_IT_CC3);
 80012a0:	687b      	ldr	r3, [r7, #4]
 80012a2:	681b      	ldr	r3, [r3, #0]
 80012a4:	f06f 0208 	mvn.w	r2, #8
 80012a8:	611a      	str	r2, [r3, #16]
      htim->Channel = HAL_TIM_ACTIVE_CHANNEL_3;
 80012aa:	687b      	ldr	r3, [r7, #4]
 80012ac:	2204      	movs	r2, #4
 80012ae:	771a      	strb	r2, [r3, #28]
      /* Input capture event */
      if ((htim->Instance->CCMR2 & TIM_CCMR2_CC3S) != 0x00U)
 80012b0:	687b      	ldr	r3, [r7, #4]
 80012b2:	681b      	ldr	r3, [r3, #0]
 80012b4:	69db      	ldr	r3, [r3, #28]
 80012b6:	f003 0303 	and.w	r3, r3, #3
 80012ba:	2b00      	cmp	r3, #0
 80012bc:	d003      	beq.n	80012c6 <HAL_TIM_IRQHandler+0xf2>
      {
#if (USE_HAL_TIM_REGISTER_CALLBACKS == 1)
        htim->IC_CaptureCallback(htim);
#else
        HAL_TIM_IC_CaptureCallback(htim);
 80012be:	6878      	ldr	r0, [r7, #4]
 80012c0:	f000 f96b 	bl	800159a <HAL_TIM_IC_CaptureCallback>
 80012c4:	e005      	b.n	80012d2 <HAL_TIM_IRQHandler+0xfe>
      {
#if (USE_HAL_TIM_REGISTER_CALLBACKS == 1)
        htim->OC_DelayElapsedCallback(htim);
        htim->PWM_PulseFinishedCallback(htim);
#else
        HAL_TIM_OC_DelayElapsedCallback(htim);
 80012c6:	6878      	ldr	r0, [r7, #4]
 80012c8:	f000 f95d 	bl	8001586 <HAL_TIM_OC_DelayElapsedCallback>
        HAL_TIM_PWM_PulseFinishedCallback(htim);
 80012cc:	6878      	ldr	r0, [r7, #4]
 80012ce:	f000 f96e 	bl	80015ae <HAL_TIM_PWM_PulseFinishedCallback>
#endif /* USE_HAL_TIM_REGISTER_CALLBACKS */
      }
      htim->Channel = HAL_TIM_ACTIVE_CHANNEL_CLEARED;
 80012d2:	687b      	ldr	r3, [r7, #4]
 80012d4:	2200      	movs	r2, #0
 80012d6:	771a      	strb	r2, [r3, #28]
    }
  }
  /* Capture compare 4 event */
  if (__HAL_TIM_GET_FLAG(htim, TIM_FLAG_CC4) != RESET)
 80012d8:	687b      	ldr	r3, [r7, #4]
 80012da:	681b      	ldr	r3, [r3, #0]
 80012dc:	691b      	ldr	r3, [r3, #16]
 80012de:	f003 0310 	and.w	r3, r3, #16
 80012e2:	2b10      	cmp	r3, #16
 80012e4:	d122      	bne.n	800132c <HAL_TIM_IRQHandler+0x158>
  {
    if (__HAL_TIM_GET_IT_SOURCE(htim, TIM_IT_CC4) != RESET)
 80012e6:	687b      	ldr	r3, [r7, #4]
 80012e8:	681b      	ldr	r3, [r3, #0]
 80012ea:	68db      	ldr	r3, [r3, #12]
 80012ec:	f003 0310 	and.w	r3, r3, #16
 80012f0:	2b10      	cmp	r3, #16
 80012f2:	d11b      	bne.n	800132c <HAL_TIM_IRQHandler+0x158>
    {
      __HAL_TIM_CLEAR_IT(htim, TIM_IT_CC4);
 80012f4:	687b      	ldr	r3, [r7, #4]
 80012f6:	681b      	ldr	r3, [r3, #0]
 80012f8:	f06f 0210 	mvn.w	r2, #16
 80012fc:	611a      	str	r2, [r3, #16]
      htim->Channel = HAL_TIM_ACTIVE_CHANNEL_4;
 80012fe:	687b      	ldr	r3, [r7, #4]
 8001300:	2208      	movs	r2, #8
 8001302:	771a      	strb	r2, [r3, #28]
      /* Input capture event */
      if ((htim->Instance->CCMR2 & TIM_CCMR2_CC4S) != 0x00U)
 8001304:	687b      	ldr	r3, [r7, #4]
 8001306:	681b      	ldr	r3, [r3, #0]
 8001308:	69db      	ldr	r3, [r3, #28]
 800130a:	f403 7340 	and.w	r3, r3, #768	; 0x300
 800130e:	2b00      	cmp	r3, #0
 8001310:	d003      	beq.n	800131a <HAL_TIM_IRQHandler+0x146>
      {
#if (USE_HAL_TIM_REGISTER_CALLBACKS == 1)
        htim->IC_CaptureCallback(htim);
#else
        HAL_TIM_IC_CaptureCallback(htim);
 8001312:	6878      	ldr	r0, [r7, #4]
 8001314:	f000 f941 	bl	800159a <HAL_TIM_IC_CaptureCallback>
 8001318:	e005      	b.n	8001326 <HAL_TIM_IRQHandler+0x152>
      {
#if (USE_HAL_TIM_REGISTER_CALLBACKS == 1)
        htim->OC_DelayElapsedCallback(htim);
        htim->PWM_PulseFinishedCallback(htim);
#else
        HAL_TIM_OC_DelayElapsedCallback(htim);
 800131a:	6878      	ldr	r0, [r7, #4]
 800131c:	f000 f933 	bl	8001586 <HAL_TIM_OC_DelayElapsedCallback>
        HAL_TIM_PWM_PulseFinishedCallback(htim);
 8001320:	6878      	ldr	r0, [r7, #4]
 8001322:	f000 f944 	bl	80015ae <HAL_TIM_PWM_PulseFinishedCallback>
#endif /* USE_HAL_TIM_REGISTER_CALLBACKS */
      }
      htim->Channel = HAL_TIM_ACTIVE_CHANNEL_CLEARED;
 8001326:	687b      	ldr	r3, [r7, #4]
 8001328:	2200      	movs	r2, #0
 800132a:	771a      	strb	r2, [r3, #28]
    }
  }
  /* TIM Update event */
  if (__HAL_TIM_GET_FLAG(htim, TIM_FLAG_UPDATE) != RESET)
 800132c:	687b      	ldr	r3, [r7, #4]
 800132e:	681b      	ldr	r3, [r3, #0]
 8001330:	691b      	ldr	r3, [r3, #16]
 8001332:	f003 0301 	and.w	r3, r3, #1
 8001336:	2b01      	cmp	r3, #1
 8001338:	d10e      	bne.n	8001358 <HAL_TIM_IRQHandler+0x184>
  {
    if (__HAL_TIM_GET_IT_SOURCE(htim, TIM_IT_UPDATE) != RESET)
 800133a:	687b      	ldr	r3, [r7, #4]
 800133c:	681b      	ldr	r3, [r3, #0]
 800133e:	68db      	ldr	r3, [r3, #12]
 8001340:	f003 0301 	and.w	r3, r3, #1
 8001344:	2b01      	cmp	r3, #1
 8001346:	d107      	bne.n	8001358 <HAL_TIM_IRQHandler+0x184>
    {
      __HAL_TIM_CLEAR_IT(htim, TIM_IT_UPDATE);
 8001348:	687b      	ldr	r3, [r7, #4]
 800134a:	681b      	ldr	r3, [r3, #0]
 800134c:	f06f 0201 	mvn.w	r2, #1
 8001350:	611a      	str	r2, [r3, #16]
#if (USE_HAL_TIM_REGISTER_CALLBACKS == 1)
      htim->PeriodElapsedCallback(htim);
#else
      HAL_TIM_PeriodElapsedCallback(htim);
 8001352:	6878      	ldr	r0, [r7, #4]
 8001354:	f000 f90d 	bl	8001572 <HAL_TIM_PeriodElapsedCallback>
#endif /* USE_HAL_TIM_REGISTER_CALLBACKS */
    }
  }
  /* TIM Break input event */
  if (__HAL_TIM_GET_FLAG(htim, TIM_FLAG_BREAK) != RESET)
 8001358:	687b      	ldr	r3, [r7, #4]
 800135a:	681b      	ldr	r3, [r3, #0]
 800135c:	691b      	ldr	r3, [r3, #16]
 800135e:	f003 0380 	and.w	r3, r3, #128	; 0x80
 8001362:	2b80      	cmp	r3, #128	; 0x80
 8001364:	d10e      	bne.n	8001384 <HAL_TIM_IRQHandler+0x1b0>
  {
    if (__HAL_TIM_GET_IT_SOURCE(htim, TIM_IT_BREAK) != RESET)
 8001366:	687b      	ldr	r3, [r7, #4]
 8001368:	681b      	ldr	r3, [r3, #0]
 800136a:	68db      	ldr	r3, [r3, #12]
 800136c:	f003 0380 	and.w	r3, r3, #128	; 0x80
 8001370:	2b80      	cmp	r3, #128	; 0x80
 8001372:	d107      	bne.n	8001384 <HAL_TIM_IRQHandler+0x1b0>
    {
      __HAL_TIM_CLEAR_IT(htim, TIM_IT_BREAK);
 8001374:	687b      	ldr	r3, [r7, #4]
 8001376:	681b      	ldr	r3, [r3, #0]
 8001378:	f06f 0280 	mvn.w	r2, #128	; 0x80
 800137c:	611a      	str	r2, [r3, #16]
#if (USE_HAL_TIM_REGISTER_CALLBACKS == 1)
      htim->BreakCallback(htim);
#else
      HAL_TIMEx_BreakCallback(htim);
 800137e:	6878      	ldr	r0, [r7, #4]
 8001380:	f000 faea 	bl	8001958 <HAL_TIMEx_BreakCallback>
#endif /* USE_HAL_TIM_REGISTER_CALLBACKS */
    }
  }
  /* TIM Trigger detection event */
  if (__HAL_TIM_GET_FLAG(htim, TIM_FLAG_TRIGGER) != RESET)
 8001384:	687b      	ldr	r3, [r7, #4]
 8001386:	681b      	ldr	r3, [r3, #0]
 8001388:	691b      	ldr	r3, [r3, #16]
 800138a:	f003 0340 	and.w	r3, r3, #64	; 0x40
 800138e:	2b40      	cmp	r3, #64	; 0x40
 8001390:	d10e      	bne.n	80013b0 <HAL_TIM_IRQHandler+0x1dc>
  {
    if (__HAL_TIM_GET_IT_SOURCE(htim, TIM_IT_TRIGGER) != RESET)
 8001392:	687b      	ldr	r3, [r7, #4]
 8001394:	681b      	ldr	r3, [r3, #0]
 8001396:	68db      	ldr	r3, [r3, #12]
 8001398:	f003 0340 	and.w	r3, r3, #64	; 0x40
 800139c:	2b40      	cmp	r3, #64	; 0x40
 800139e:	d107      	bne.n	80013b0 <HAL_TIM_IRQHandler+0x1dc>
    {
      __HAL_TIM_CLEAR_IT(htim, TIM_IT_TRIGGER);
 80013a0:	687b      	ldr	r3, [r7, #4]
 80013a2:	681b      	ldr	r3, [r3, #0]
 80013a4:	f06f 0240 	mvn.w	r2, #64	; 0x40
 80013a8:	611a      	str	r2, [r3, #16]
#if (USE_HAL_TIM_REGISTER_CALLBACKS == 1)
      htim->TriggerCallback(htim);
#else
      HAL_TIM_TriggerCallback(htim);
 80013aa:	6878      	ldr	r0, [r7, #4]
 80013ac:	f000 f909 	bl	80015c2 <HAL_TIM_TriggerCallback>
#endif /* USE_HAL_TIM_REGISTER_CALLBACKS */
    }
  }
  /* TIM commutation event */
  if (__HAL_TIM_GET_FLAG(htim, TIM_FLAG_COM) != RESET)
 80013b0:	687b      	ldr	r3, [r7, #4]
 80013b2:	681b      	ldr	r3, [r3, #0]
 80013b4:	691b      	ldr	r3, [r3, #16]
 80013b6:	f003 0320 	and.w	r3, r3, #32
 80013ba:	2b20      	cmp	r3, #32
 80013bc:	d10e      	bne.n	80013dc <HAL_TIM_IRQHandler+0x208>
  {
    if (__HAL_TIM_GET_IT_SOURCE(htim, TIM_IT_COM) != RESET)
 80013be:	687b      	ldr	r3, [r7, #4]
 80013c0:	681b      	ldr	r3, [r3, #0]
 80013c2:	68db      	ldr	r3, [r3, #12]
 80013c4:	f003 0320 	and.w	r3, r3, #32
 80013c8:	2b20      	cmp	r3, #32
 80013ca:	d107      	bne.n	80013dc <HAL_TIM_IRQHandler+0x208>
    {
      __HAL_TIM_CLEAR_IT(htim, TIM_FLAG_COM);
 80013cc:	687b      	ldr	r3, [r7, #4]
 80013ce:	681b      	ldr	r3, [r3, #0]
 80013d0:	f06f 0220 	mvn.w	r2, #32
 80013d4:	611a      	str	r2, [r3, #16]
#if (USE_HAL_TIM_REGISTER_CALLBACKS == 1)
      htim->CommutationCallback(htim);
#else
      HAL_TIMEx_CommutCallback(htim);
 80013d6:	6878      	ldr	r0, [r7, #4]
 80013d8:	f000 fab4 	bl	8001944 <HAL_TIMEx_CommutCallback>
#endif /* USE_HAL_TIM_REGISTER_CALLBACKS */
    }
  }
}
 80013dc:	bf00      	nop
 80013de:	3708      	adds	r7, #8
 80013e0:	46bd      	mov	sp, r7
 80013e2:	bd80      	pop	{r7, pc}

080013e4 <HAL_TIM_ConfigClockSource>:
  * @param  sClockSourceConfig pointer to a TIM_ClockConfigTypeDef structure that
  *         contains the clock source information for the TIM peripheral.
  * @retval HAL status
  */
HAL_StatusTypeDef HAL_TIM_ConfigClockSource(TIM_HandleTypeDef *htim, TIM_ClockConfigTypeDef *sClockSourceConfig)
{
 80013e4:	b580      	push	{r7, lr}
 80013e6:	b084      	sub	sp, #16
 80013e8:	af00      	add	r7, sp, #0
 80013ea:	6078      	str	r0, [r7, #4]
 80013ec:	6039      	str	r1, [r7, #0]
  HAL_StatusTypeDef status = HAL_OK;
 80013ee:	2300      	movs	r3, #0
 80013f0:	73fb      	strb	r3, [r7, #15]
  uint32_t tmpsmcr;

  /* Process Locked */
  __HAL_LOCK(htim);
 80013f2:	687b      	ldr	r3, [r7, #4]
 80013f4:	f893 303c 	ldrb.w	r3, [r3, #60]	; 0x3c
 80013f8:	2b01      	cmp	r3, #1
 80013fa:	d101      	bne.n	8001400 <HAL_TIM_ConfigClockSource+0x1c>
 80013fc:	2302      	movs	r3, #2
 80013fe:	e0b4      	b.n	800156a <HAL_TIM_ConfigClockSource+0x186>
 8001400:	687b      	ldr	r3, [r7, #4]
 8001402:	2201      	movs	r2, #1
 8001404:	f883 203c 	strb.w	r2, [r3, #60]	; 0x3c

  htim->State = HAL_TIM_STATE_BUSY;
 8001408:	687b      	ldr	r3, [r7, #4]
 800140a:	2202      	movs	r2, #2
 800140c:	f883 203d 	strb.w	r2, [r3, #61]	; 0x3d

  /* Check the parameters */
  assert_param(IS_TIM_CLOCKSOURCE(sClockSourceConfig->ClockSource));

  /* Reset the SMS, TS, ECE, ETPS and ETRF bits */
  tmpsmcr = htim->Instance->SMCR;
 8001410:	687b      	ldr	r3, [r7, #4]
 8001412:	681b      	ldr	r3, [r3, #0]
 8001414:	689b      	ldr	r3, [r3, #8]
 8001416:	60bb      	str	r3, [r7, #8]
  tmpsmcr &= ~(TIM_SMCR_SMS | TIM_SMCR_TS);
 8001418:	68bb      	ldr	r3, [r7, #8]
 800141a:	f023 0377 	bic.w	r3, r3, #119	; 0x77
 800141e:	60bb      	str	r3, [r7, #8]
  tmpsmcr &= ~(TIM_SMCR_ETF | TIM_SMCR_ETPS | TIM_SMCR_ECE | TIM_SMCR_ETP);
 8001420:	68bb      	ldr	r3, [r7, #8]
 8001422:	f423 437f 	bic.w	r3, r3, #65280	; 0xff00
 8001426:	60bb      	str	r3, [r7, #8]
  htim->Instance->SMCR = tmpsmcr;
 8001428:	687b      	ldr	r3, [r7, #4]
 800142a:	681b      	ldr	r3, [r3, #0]
 800142c:	68ba      	ldr	r2, [r7, #8]
 800142e:	609a      	str	r2, [r3, #8]

  switch (sClockSourceConfig->ClockSource)
 8001430:	683b      	ldr	r3, [r7, #0]
 8001432:	681b      	ldr	r3, [r3, #0]
 8001434:	f5b3 5f00 	cmp.w	r3, #8192	; 0x2000
 8001438:	d03e      	beq.n	80014b8 <HAL_TIM_ConfigClockSource+0xd4>
 800143a:	f5b3 5f00 	cmp.w	r3, #8192	; 0x2000
 800143e:	f200 8087 	bhi.w	8001550 <HAL_TIM_ConfigClockSource+0x16c>
 8001442:	f5b3 5f80 	cmp.w	r3, #4096	; 0x1000
 8001446:	f000 8086 	beq.w	8001556 <HAL_TIM_ConfigClockSource+0x172>
 800144a:	f5b3 5f80 	cmp.w	r3, #4096	; 0x1000
 800144e:	d87f      	bhi.n	8001550 <HAL_TIM_ConfigClockSource+0x16c>
 8001450:	2b70      	cmp	r3, #112	; 0x70
 8001452:	d01a      	beq.n	800148a <HAL_TIM_ConfigClockSource+0xa6>
 8001454:	2b70      	cmp	r3, #112	; 0x70
 8001456:	d87b      	bhi.n	8001550 <HAL_TIM_ConfigClockSource+0x16c>
 8001458:	2b60      	cmp	r3, #96	; 0x60
 800145a:	d050      	beq.n	80014fe <HAL_TIM_ConfigClockSource+0x11a>
 800145c:	2b60      	cmp	r3, #96	; 0x60
 800145e:	d877      	bhi.n	8001550 <HAL_TIM_ConfigClockSource+0x16c>
 8001460:	2b50      	cmp	r3, #80	; 0x50
 8001462:	d03c      	beq.n	80014de <HAL_TIM_ConfigClockSource+0xfa>
 8001464:	2b50      	cmp	r3, #80	; 0x50
 8001466:	d873      	bhi.n	8001550 <HAL_TIM_ConfigClockSource+0x16c>
 8001468:	2b40      	cmp	r3, #64	; 0x40
 800146a:	d058      	beq.n	800151e <HAL_TIM_ConfigClockSource+0x13a>
 800146c:	2b40      	cmp	r3, #64	; 0x40
 800146e:	d86f      	bhi.n	8001550 <HAL_TIM_ConfigClockSource+0x16c>
 8001470:	2b30      	cmp	r3, #48	; 0x30
 8001472:	d064      	beq.n	800153e <HAL_TIM_ConfigClockSource+0x15a>
 8001474:	2b30      	cmp	r3, #48	; 0x30
 8001476:	d86b      	bhi.n	8001550 <HAL_TIM_ConfigClockSource+0x16c>
 8001478:	2b20      	cmp	r3, #32
 800147a:	d060      	beq.n	800153e <HAL_TIM_ConfigClockSource+0x15a>
 800147c:	2b20      	cmp	r3, #32
 800147e:	d867      	bhi.n	8001550 <HAL_TIM_ConfigClockSource+0x16c>
 8001480:	2b00      	cmp	r3, #0
 8001482:	d05c      	beq.n	800153e <HAL_TIM_ConfigClockSource+0x15a>
 8001484:	2b10      	cmp	r3, #16
 8001486:	d05a      	beq.n	800153e <HAL_TIM_ConfigClockSource+0x15a>
 8001488:	e062      	b.n	8001550 <HAL_TIM_ConfigClockSource+0x16c>
      assert_param(IS_TIM_CLOCKPRESCALER(sClockSourceConfig->ClockPrescaler));
      assert_param(IS_TIM_CLOCKPOLARITY(sClockSourceConfig->ClockPolarity));
      assert_param(IS_TIM_CLOCKFILTER(sClockSourceConfig->ClockFilter));

      /* Configure the ETR Clock source */
      TIM_ETR_SetConfig(htim->Instance,
 800148a:	687b      	ldr	r3, [r7, #4]
 800148c:	6818      	ldr	r0, [r3, #0]
 800148e:	683b      	ldr	r3, [r7, #0]
 8001490:	6899      	ldr	r1, [r3, #8]
 8001492:	683b      	ldr	r3, [r7, #0]
 8001494:	685a      	ldr	r2, [r3, #4]
 8001496:	683b      	ldr	r3, [r7, #0]
 8001498:	68db      	ldr	r3, [r3, #12]
 800149a:	f000 f9b7 	bl	800180c <TIM_ETR_SetConfig>
                        sClockSourceConfig->ClockPrescaler,
                        sClockSourceConfig->ClockPolarity,
                        sClockSourceConfig->ClockFilter);

      /* Select the External clock mode1 and the ETRF trigger */
      tmpsmcr = htim->Instance->SMCR;
 800149e:	687b      	ldr	r3, [r7, #4]
 80014a0:	681b      	ldr	r3, [r3, #0]
 80014a2:	689b      	ldr	r3, [r3, #8]
 80014a4:	60bb      	str	r3, [r7, #8]
      tmpsmcr |= (TIM_SLAVEMODE_EXTERNAL1 | TIM_CLOCKSOURCE_ETRMODE1);
 80014a6:	68bb      	ldr	r3, [r7, #8]
 80014a8:	f043 0377 	orr.w	r3, r3, #119	; 0x77
 80014ac:	60bb      	str	r3, [r7, #8]
      /* Write to TIMx SMCR */
      htim->Instance->SMCR = tmpsmcr;
 80014ae:	687b      	ldr	r3, [r7, #4]
 80014b0:	681b      	ldr	r3, [r3, #0]
 80014b2:	68ba      	ldr	r2, [r7, #8]
 80014b4:	609a      	str	r2, [r3, #8]
      break;
 80014b6:	e04f      	b.n	8001558 <HAL_TIM_ConfigClockSource+0x174>
      assert_param(IS_TIM_CLOCKPRESCALER(sClockSourceConfig->ClockPrescaler));
      assert_param(IS_TIM_CLOCKPOLARITY(sClockSourceConfig->ClockPolarity));
      assert_param(IS_TIM_CLOCKFILTER(sClockSourceConfig->ClockFilter));

      /* Configure the ETR Clock source */
      TIM_ETR_SetConfig(htim->Instance,
 80014b8:	687b      	ldr	r3, [r7, #4]
 80014ba:	6818      	ldr	r0, [r3, #0]
 80014bc:	683b      	ldr	r3, [r7, #0]
 80014be:	6899      	ldr	r1, [r3, #8]
 80014c0:	683b      	ldr	r3, [r7, #0]
 80014c2:	685a      	ldr	r2, [r3, #4]
 80014c4:	683b      	ldr	r3, [r7, #0]
 80014c6:	68db      	ldr	r3, [r3, #12]
 80014c8:	f000 f9a0 	bl	800180c <TIM_ETR_SetConfig>
                        sClockSourceConfig->ClockPrescaler,
                        sClockSourceConfig->ClockPolarity,
                        sClockSourceConfig->ClockFilter);
      /* Enable the External clock mode2 */
      htim->Instance->SMCR |= TIM_SMCR_ECE;
 80014cc:	687b      	ldr	r3, [r7, #4]
 80014ce:	681b      	ldr	r3, [r3, #0]
 80014d0:	689a      	ldr	r2, [r3, #8]
 80014d2:	687b      	ldr	r3, [r7, #4]
 80014d4:	681b      	ldr	r3, [r3, #0]
 80014d6:	f442 4280 	orr.w	r2, r2, #16384	; 0x4000
 80014da:	609a      	str	r2, [r3, #8]
      break;
 80014dc:	e03c      	b.n	8001558 <HAL_TIM_ConfigClockSource+0x174>

      /* Check TI1 input conditioning related parameters */
      assert_param(IS_TIM_CLOCKPOLARITY(sClockSourceConfig->ClockPolarity));
      assert_param(IS_TIM_CLOCKFILTER(sClockSourceConfig->ClockFilter));

      TIM_TI1_ConfigInputStage(htim->Instance,
 80014de:	687b      	ldr	r3, [r7, #4]
 80014e0:	6818      	ldr	r0, [r3, #0]
 80014e2:	683b      	ldr	r3, [r7, #0]
 80014e4:	6859      	ldr	r1, [r3, #4]
 80014e6:	683b      	ldr	r3, [r7, #0]
 80014e8:	68db      	ldr	r3, [r3, #12]
 80014ea:	461a      	mov	r2, r3
 80014ec:	f000 f914 	bl	8001718 <TIM_TI1_ConfigInputStage>
                               sClockSourceConfig->ClockPolarity,
                               sClockSourceConfig->ClockFilter);
      TIM_ITRx_SetConfig(htim->Instance, TIM_CLOCKSOURCE_TI1);
 80014f0:	687b      	ldr	r3, [r7, #4]
 80014f2:	681b      	ldr	r3, [r3, #0]
 80014f4:	2150      	movs	r1, #80	; 0x50
 80014f6:	4618      	mov	r0, r3
 80014f8:	f000 f96d 	bl	80017d6 <TIM_ITRx_SetConfig>
      break;
 80014fc:	e02c      	b.n	8001558 <HAL_TIM_ConfigClockSource+0x174>

      /* Check TI2 input conditioning related parameters */
      assert_param(IS_TIM_CLOCKPOLARITY(sClockSourceConfig->ClockPolarity));
      assert_param(IS_TIM_CLOCKFILTER(sClockSourceConfig->ClockFilter));

      TIM_TI2_ConfigInputStage(htim->Instance,
 80014fe:	687b      	ldr	r3, [r7, #4]
 8001500:	6818      	ldr	r0, [r3, #0]
 8001502:	683b      	ldr	r3, [r7, #0]
 8001504:	6859      	ldr	r1, [r3, #4]
 8001506:	683b      	ldr	r3, [r7, #0]
 8001508:	68db      	ldr	r3, [r3, #12]
 800150a:	461a      	mov	r2, r3
 800150c:	f000 f933 	bl	8001776 <TIM_TI2_ConfigInputStage>
                               sClockSourceConfig->ClockPolarity,
                               sClockSourceConfig->ClockFilter);
      TIM_ITRx_SetConfig(htim->Instance, TIM_CLOCKSOURCE_TI2);
 8001510:	687b      	ldr	r3, [r7, #4]
 8001512:	681b      	ldr	r3, [r3, #0]
 8001514:	2160      	movs	r1, #96	; 0x60
 8001516:	4618      	mov	r0, r3
 8001518:	f000 f95d 	bl	80017d6 <TIM_ITRx_SetConfig>
      break;
 800151c:	e01c      	b.n	8001558 <HAL_TIM_ConfigClockSource+0x174>

      /* Check TI1 input conditioning related parameters */
      assert_param(IS_TIM_CLOCKPOLARITY(sClockSourceConfig->ClockPolarity));
      assert_param(IS_TIM_CLOCKFILTER(sClockSourceConfig->ClockFilter));

      TIM_TI1_ConfigInputStage(htim->Instance,
 800151e:	687b      	ldr	r3, [r7, #4]
 8001520:	6818      	ldr	r0, [r3, #0]
 8001522:	683b      	ldr	r3, [r7, #0]
 8001524:	6859      	ldr	r1, [r3, #4]
 8001526:	683b      	ldr	r3, [r7, #0]
 8001528:	68db      	ldr	r3, [r3, #12]
 800152a:	461a      	mov	r2, r3
 800152c:	f000 f8f4 	bl	8001718 <TIM_TI1_ConfigInputStage>
                               sClockSourceConfig->ClockPolarity,
                               sClockSourceConfig->ClockFilter);
      TIM_ITRx_SetConfig(htim->Instance, TIM_CLOCKSOURCE_TI1ED);
 8001530:	687b      	ldr	r3, [r7, #4]
 8001532:	681b      	ldr	r3, [r3, #0]
 8001534:	2140      	movs	r1, #64	; 0x40
 8001536:	4618      	mov	r0, r3
 8001538:	f000 f94d 	bl	80017d6 <TIM_ITRx_SetConfig>
      break;
 800153c:	e00c      	b.n	8001558 <HAL_TIM_ConfigClockSource+0x174>
    case TIM_CLOCKSOURCE_ITR3:
    {
      /* Check whether or not the timer instance supports internal trigger input */
      assert_param(IS_TIM_CLOCKSOURCE_ITRX_INSTANCE(htim->Instance));

      TIM_ITRx_SetConfig(htim->Instance, sClockSourceConfig->ClockSource);
 800153e:	687b      	ldr	r3, [r7, #4]
 8001540:	681a      	ldr	r2, [r3, #0]
 8001542:	683b      	ldr	r3, [r7, #0]
 8001544:	681b      	ldr	r3, [r3, #0]
 8001546:	4619      	mov	r1, r3
 8001548:	4610      	mov	r0, r2
 800154a:	f000 f944 	bl	80017d6 <TIM_ITRx_SetConfig>
      break;
 800154e:	e003      	b.n	8001558 <HAL_TIM_ConfigClockSource+0x174>
    }

    default:
      status = HAL_ERROR;
 8001550:	2301      	movs	r3, #1
 8001552:	73fb      	strb	r3, [r7, #15]
      break;
 8001554:	e000      	b.n	8001558 <HAL_TIM_ConfigClockSource+0x174>
      break;
 8001556:	bf00      	nop
  }
  htim->State = HAL_TIM_STATE_READY;
 8001558:	687b      	ldr	r3, [r7, #4]
 800155a:	2201      	movs	r2, #1
 800155c:	f883 203d 	strb.w	r2, [r3, #61]	; 0x3d

  __HAL_UNLOCK(htim);
 8001560:	687b      	ldr	r3, [r7, #4]
 8001562:	2200      	movs	r2, #0
 8001564:	f883 203c 	strb.w	r2, [r3, #60]	; 0x3c

  return status;
 8001568:	7bfb      	ldrb	r3, [r7, #15]
}
 800156a:	4618      	mov	r0, r3
 800156c:	3710      	adds	r7, #16
 800156e:	46bd      	mov	sp, r7
 8001570:	bd80      	pop	{r7, pc}

08001572 <HAL_TIM_PeriodElapsedCallback>:
  * @brief  Period elapsed callback in non-blocking mode
  * @param  htim TIM handle
  * @retval None
  */
__weak void HAL_TIM_PeriodElapsedCallback(TIM_HandleTypeDef *htim)
{
 8001572:	b480      	push	{r7}
 8001574:	b083      	sub	sp, #12
 8001576:	af00      	add	r7, sp, #0
 8001578:	6078      	str	r0, [r7, #4]
  UNUSED(htim);

  /* NOTE : This function should not be modified, when the callback is needed,
            the HAL_TIM_PeriodElapsedCallback could be implemented in the user file
   */
}
 800157a:	bf00      	nop
 800157c:	370c      	adds	r7, #12
 800157e:	46bd      	mov	sp, r7
 8001580:	f85d 7b04 	ldr.w	r7, [sp], #4
 8001584:	4770      	bx	lr

08001586 <HAL_TIM_OC_DelayElapsedCallback>:
  * @brief  Output Compare callback in non-blocking mode
  * @param  htim TIM OC handle
  * @retval None
  */
__weak void HAL_TIM_OC_DelayElapsedCallback(TIM_HandleTypeDef *htim)
{
 8001586:	b480      	push	{r7}
 8001588:	b083      	sub	sp, #12
 800158a:	af00      	add	r7, sp, #0
 800158c:	6078      	str	r0, [r7, #4]
  UNUSED(htim);

  /* NOTE : This function should not be modified, when the callback is needed,
            the HAL_TIM_OC_DelayElapsedCallback could be implemented in the user file
   */
}
 800158e:	bf00      	nop
 8001590:	370c      	adds	r7, #12
 8001592:	46bd      	mov	sp, r7
 8001594:	f85d 7b04 	ldr.w	r7, [sp], #4
 8001598:	4770      	bx	lr

0800159a <HAL_TIM_IC_CaptureCallback>:
  * @brief  Input Capture callback in non-blocking mode
  * @param  htim TIM IC handle
  * @retval None
  */
__weak void HAL_TIM_IC_CaptureCallback(TIM_HandleTypeDef *htim)
{
 800159a:	b480      	push	{r7}
 800159c:	b083      	sub	sp, #12
 800159e:	af00      	add	r7, sp, #0
 80015a0:	6078      	str	r0, [r7, #4]
  UNUSED(htim);

  /* NOTE : This function should not be modified, when the callback is needed,
            the HAL_TIM_IC_CaptureCallback could be implemented in the user file
   */
}
 80015a2:	bf00      	nop
 80015a4:	370c      	adds	r7, #12
 80015a6:	46bd      	mov	sp, r7
 80015a8:	f85d 7b04 	ldr.w	r7, [sp], #4
 80015ac:	4770      	bx	lr

080015ae <HAL_TIM_PWM_PulseFinishedCallback>:
  * @brief  PWM Pulse finished callback in non-blocking mode
  * @param  htim TIM handle
  * @retval None
  */
__weak void HAL_TIM_PWM_PulseFinishedCallback(TIM_HandleTypeDef *htim)
{
 80015ae:	b480      	push	{r7}
 80015b0:	b083      	sub	sp, #12
 80015b2:	af00      	add	r7, sp, #0
 80015b4:	6078      	str	r0, [r7, #4]
  UNUSED(htim);

  /* NOTE : This function should not be modified, when the callback is needed,
            the HAL_TIM_PWM_PulseFinishedCallback could be implemented in the user file
   */
}
 80015b6:	bf00      	nop
 80015b8:	370c      	adds	r7, #12
 80015ba:	46bd      	mov	sp, r7
 80015bc:	f85d 7b04 	ldr.w	r7, [sp], #4
 80015c0:	4770      	bx	lr

080015c2 <HAL_TIM_TriggerCallback>:
  * @brief  Hall Trigger detection callback in non-blocking mode
  * @param  htim TIM handle
  * @retval None
  */
__weak void HAL_TIM_TriggerCallback(TIM_HandleTypeDef *htim)
{
 80015c2:	b480      	push	{r7}
 80015c4:	b083      	sub	sp, #12
 80015c6:	af00      	add	r7, sp, #0
 80015c8:	6078      	str	r0, [r7, #4]
  UNUSED(htim);

  /* NOTE : This function should not be modified, when the callback is needed,
            the HAL_TIM_TriggerCallback could be implemented in the user file
   */
}
 80015ca:	bf00      	nop
 80015cc:	370c      	adds	r7, #12
 80015ce:	46bd      	mov	sp, r7
 80015d0:	f85d 7b04 	ldr.w	r7, [sp], #4
 80015d4:	4770      	bx	lr
	...

080015d8 <TIM_Base_SetConfig>:
  * @param  TIMx TIM peripheral
  * @param  Structure TIM Base configuration structure
  * @retval None
  */
void TIM_Base_SetConfig(TIM_TypeDef *TIMx, TIM_Base_InitTypeDef *Structure)
{
 80015d8:	b480      	push	{r7}
 80015da:	b085      	sub	sp, #20
 80015dc:	af00      	add	r7, sp, #0
 80015de:	6078      	str	r0, [r7, #4]
 80015e0:	6039      	str	r1, [r7, #0]
  uint32_t tmpcr1;
  tmpcr1 = TIMx->CR1;
 80015e2:	687b      	ldr	r3, [r7, #4]
 80015e4:	681b      	ldr	r3, [r3, #0]
 80015e6:	60fb      	str	r3, [r7, #12]

  /* Set TIM Time Base Unit parameters ---------------------------------------*/
  if (IS_TIM_COUNTER_MODE_SELECT_INSTANCE(TIMx))
 80015e8:	687b      	ldr	r3, [r7, #4]
 80015ea:	4a40      	ldr	r2, [pc, #256]	; (80016ec <TIM_Base_SetConfig+0x114>)
 80015ec:	4293      	cmp	r3, r2
 80015ee:	d013      	beq.n	8001618 <TIM_Base_SetConfig+0x40>
 80015f0:	687b      	ldr	r3, [r7, #4]
 80015f2:	f1b3 4f80 	cmp.w	r3, #1073741824	; 0x40000000
 80015f6:	d00f      	beq.n	8001618 <TIM_Base_SetConfig+0x40>
 80015f8:	687b      	ldr	r3, [r7, #4]
 80015fa:	4a3d      	ldr	r2, [pc, #244]	; (80016f0 <TIM_Base_SetConfig+0x118>)
 80015fc:	4293      	cmp	r3, r2
 80015fe:	d00b      	beq.n	8001618 <TIM_Base_SetConfig+0x40>
 8001600:	687b      	ldr	r3, [r7, #4]
 8001602:	4a3c      	ldr	r2, [pc, #240]	; (80016f4 <TIM_Base_SetConfig+0x11c>)
 8001604:	4293      	cmp	r3, r2
 8001606:	d007      	beq.n	8001618 <TIM_Base_SetConfig+0x40>
 8001608:	687b      	ldr	r3, [r7, #4]
 800160a:	4a3b      	ldr	r2, [pc, #236]	; (80016f8 <TIM_Base_SetConfig+0x120>)
 800160c:	4293      	cmp	r3, r2
 800160e:	d003      	beq.n	8001618 <TIM_Base_SetConfig+0x40>
 8001610:	687b      	ldr	r3, [r7, #4]
 8001612:	4a3a      	ldr	r2, [pc, #232]	; (80016fc <TIM_Base_SetConfig+0x124>)
 8001614:	4293      	cmp	r3, r2
 8001616:	d108      	bne.n	800162a <TIM_Base_SetConfig+0x52>
  {
    /* Select the Counter Mode */
    tmpcr1 &= ~(TIM_CR1_DIR | TIM_CR1_CMS);
 8001618:	68fb      	ldr	r3, [r7, #12]
 800161a:	f023 0370 	bic.w	r3, r3, #112	; 0x70
 800161e:	60fb      	str	r3, [r7, #12]
    tmpcr1 |= Structure->CounterMode;
 8001620:	683b      	ldr	r3, [r7, #0]
 8001622:	685b      	ldr	r3, [r3, #4]
 8001624:	68fa      	ldr	r2, [r7, #12]
 8001626:	4313      	orrs	r3, r2
 8001628:	60fb      	str	r3, [r7, #12]
  }

  if (IS_TIM_CLOCK_DIVISION_INSTANCE(TIMx))
 800162a:	687b      	ldr	r3, [r7, #4]
 800162c:	4a2f      	ldr	r2, [pc, #188]	; (80016ec <TIM_Base_SetConfig+0x114>)
 800162e:	4293      	cmp	r3, r2
 8001630:	d02b      	beq.n	800168a <TIM_Base_SetConfig+0xb2>
 8001632:	687b      	ldr	r3, [r7, #4]
 8001634:	f1b3 4f80 	cmp.w	r3, #1073741824	; 0x40000000
 8001638:	d027      	beq.n	800168a <TIM_Base_SetConfig+0xb2>
 800163a:	687b      	ldr	r3, [r7, #4]
 800163c:	4a2c      	ldr	r2, [pc, #176]	; (80016f0 <TIM_Base_SetConfig+0x118>)
 800163e:	4293      	cmp	r3, r2
 8001640:	d023      	beq.n	800168a <TIM_Base_SetConfig+0xb2>
 8001642:	687b      	ldr	r3, [r7, #4]
 8001644:	4a2b      	ldr	r2, [pc, #172]	; (80016f4 <TIM_Base_SetConfig+0x11c>)
 8001646:	4293      	cmp	r3, r2
 8001648:	d01f      	beq.n	800168a <TIM_Base_SetConfig+0xb2>
 800164a:	687b      	ldr	r3, [r7, #4]
 800164c:	4a2a      	ldr	r2, [pc, #168]	; (80016f8 <TIM_Base_SetConfig+0x120>)
 800164e:	4293      	cmp	r3, r2
 8001650:	d01b      	beq.n	800168a <TIM_Base_SetConfig+0xb2>
 8001652:	687b      	ldr	r3, [r7, #4]
 8001654:	4a29      	ldr	r2, [pc, #164]	; (80016fc <TIM_Base_SetConfig+0x124>)
 8001656:	4293      	cmp	r3, r2
 8001658:	d017      	beq.n	800168a <TIM_Base_SetConfig+0xb2>
 800165a:	687b      	ldr	r3, [r7, #4]
 800165c:	4a28      	ldr	r2, [pc, #160]	; (8001700 <TIM_Base_SetConfig+0x128>)
 800165e:	4293      	cmp	r3, r2
 8001660:	d013      	beq.n	800168a <TIM_Base_SetConfig+0xb2>
 8001662:	687b      	ldr	r3, [r7, #4]
 8001664:	4a27      	ldr	r2, [pc, #156]	; (8001704 <TIM_Base_SetConfig+0x12c>)
 8001666:	4293      	cmp	r3, r2
 8001668:	d00f      	beq.n	800168a <TIM_Base_SetConfig+0xb2>
 800166a:	687b      	ldr	r3, [r7, #4]
 800166c:	4a26      	ldr	r2, [pc, #152]	; (8001708 <TIM_Base_SetConfig+0x130>)
 800166e:	4293      	cmp	r3, r2
 8001670:	d00b      	beq.n	800168a <TIM_Base_SetConfig+0xb2>
 8001672:	687b      	ldr	r3, [r7, #4]
 8001674:	4a25      	ldr	r2, [pc, #148]	; (800170c <TIM_Base_SetConfig+0x134>)
 8001676:	4293      	cmp	r3, r2
 8001678:	d007      	beq.n	800168a <TIM_Base_SetConfig+0xb2>
 800167a:	687b      	ldr	r3, [r7, #4]
 800167c:	4a24      	ldr	r2, [pc, #144]	; (8001710 <TIM_Base_SetConfig+0x138>)
 800167e:	4293      	cmp	r3, r2
 8001680:	d003      	beq.n	800168a <TIM_Base_SetConfig+0xb2>
 8001682:	687b      	ldr	r3, [r7, #4]
 8001684:	4a23      	ldr	r2, [pc, #140]	; (8001714 <TIM_Base_SetConfig+0x13c>)
 8001686:	4293      	cmp	r3, r2
 8001688:	d108      	bne.n	800169c <TIM_Base_SetConfig+0xc4>
  {
    /* Set the clock division */
    tmpcr1 &= ~TIM_CR1_CKD;
 800168a:	68fb      	ldr	r3, [r7, #12]
 800168c:	f423 7340 	bic.w	r3, r3, #768	; 0x300
 8001690:	60fb      	str	r3, [r7, #12]
    tmpcr1 |= (uint32_t)Structure->ClockDivision;
 8001692:	683b      	ldr	r3, [r7, #0]
 8001694:	68db      	ldr	r3, [r3, #12]
 8001696:	68fa      	ldr	r2, [r7, #12]
 8001698:	4313      	orrs	r3, r2
 800169a:	60fb      	str	r3, [r7, #12]
  }

  /* Set the auto-reload preload */
  MODIFY_REG(tmpcr1, TIM_CR1_ARPE, Structure->AutoReloadPreload);
 800169c:	68fb      	ldr	r3, [r7, #12]
 800169e:	f023 0280 	bic.w	r2, r3, #128	; 0x80
 80016a2:	683b      	ldr	r3, [r7, #0]
 80016a4:	695b      	ldr	r3, [r3, #20]
 80016a6:	4313      	orrs	r3, r2
 80016a8:	60fb      	str	r3, [r7, #12]

  TIMx->CR1 = tmpcr1;
 80016aa:	687b      	ldr	r3, [r7, #4]
 80016ac:	68fa      	ldr	r2, [r7, #12]
 80016ae:	601a      	str	r2, [r3, #0]

  /* Set the Autoreload value */
  TIMx->ARR = (uint32_t)Structure->Period ;
 80016b0:	683b      	ldr	r3, [r7, #0]
 80016b2:	689a      	ldr	r2, [r3, #8]
 80016b4:	687b      	ldr	r3, [r7, #4]
 80016b6:	62da      	str	r2, [r3, #44]	; 0x2c

  /* Set the Prescaler value */
  TIMx->PSC = Structure->Prescaler;
 80016b8:	683b      	ldr	r3, [r7, #0]
 80016ba:	681a      	ldr	r2, [r3, #0]
 80016bc:	687b      	ldr	r3, [r7, #4]
 80016be:	629a      	str	r2, [r3, #40]	; 0x28

  if (IS_TIM_REPETITION_COUNTER_INSTANCE(TIMx))
 80016c0:	687b      	ldr	r3, [r7, #4]
 80016c2:	4a0a      	ldr	r2, [pc, #40]	; (80016ec <TIM_Base_SetConfig+0x114>)
 80016c4:	4293      	cmp	r3, r2
 80016c6:	d003      	beq.n	80016d0 <TIM_Base_SetConfig+0xf8>
 80016c8:	687b      	ldr	r3, [r7, #4]
 80016ca:	4a0c      	ldr	r2, [pc, #48]	; (80016fc <TIM_Base_SetConfig+0x124>)
 80016cc:	4293      	cmp	r3, r2
 80016ce:	d103      	bne.n	80016d8 <TIM_Base_SetConfig+0x100>
  {
    /* Set the Repetition Counter value */
    TIMx->RCR = Structure->RepetitionCounter;
 80016d0:	683b      	ldr	r3, [r7, #0]
 80016d2:	691a      	ldr	r2, [r3, #16]
 80016d4:	687b      	ldr	r3, [r7, #4]
 80016d6:	631a      	str	r2, [r3, #48]	; 0x30
  }

  /* Generate an update event to reload the Prescaler
     and the repetition counter (only for advanced timer) value immediately */
  TIMx->EGR = TIM_EGR_UG;
 80016d8:	687b      	ldr	r3, [r7, #4]
 80016da:	2201      	movs	r2, #1
 80016dc:	615a      	str	r2, [r3, #20]
}
 80016de:	bf00      	nop
 80016e0:	3714      	adds	r7, #20
 80016e2:	46bd      	mov	sp, r7
 80016e4:	f85d 7b04 	ldr.w	r7, [sp], #4
 80016e8:	4770      	bx	lr
 80016ea:	bf00      	nop
 80016ec:	40010000 	.word	0x40010000
 80016f0:	40000400 	.word	0x40000400
 80016f4:	40000800 	.word	0x40000800
 80016f8:	40000c00 	.word	0x40000c00
 80016fc:	40010400 	.word	0x40010400
 8001700:	40014000 	.word	0x40014000
 8001704:	40014400 	.word	0x40014400
 8001708:	40014800 	.word	0x40014800
 800170c:	40001800 	.word	0x40001800
 8001710:	40001c00 	.word	0x40001c00
 8001714:	40002000 	.word	0x40002000

08001718 <TIM_TI1_ConfigInputStage>:
  * @param  TIM_ICFilter Specifies the Input Capture Filter.
  *          This parameter must be a value between 0x00 and 0x0F.
  * @retval None
  */
static void TIM_TI1_ConfigInputStage(TIM_TypeDef *TIMx, uint32_t TIM_ICPolarity, uint32_t TIM_ICFilter)
{
 8001718:	b480      	push	{r7}
 800171a:	b087      	sub	sp, #28
 800171c:	af00      	add	r7, sp, #0
 800171e:	60f8      	str	r0, [r7, #12]
 8001720:	60b9      	str	r1, [r7, #8]
 8001722:	607a      	str	r2, [r7, #4]
  uint32_t tmpccmr1;
  uint32_t tmpccer;

  /* Disable the Channel 1: Reset the CC1E Bit */
  tmpccer = TIMx->CCER;
 8001724:	68fb      	ldr	r3, [r7, #12]
 8001726:	6a1b      	ldr	r3, [r3, #32]
 8001728:	617b      	str	r3, [r7, #20]
  TIMx->CCER &= ~TIM_CCER_CC1E;
 800172a:	68fb      	ldr	r3, [r7, #12]
 800172c:	6a1b      	ldr	r3, [r3, #32]
 800172e:	f023 0201 	bic.w	r2, r3, #1
 8001732:	68fb      	ldr	r3, [r7, #12]
 8001734:	621a      	str	r2, [r3, #32]
  tmpccmr1 = TIMx->CCMR1;
 8001736:	68fb      	ldr	r3, [r7, #12]
 8001738:	699b      	ldr	r3, [r3, #24]
 800173a:	613b      	str	r3, [r7, #16]

  /* Set the filter */
  tmpccmr1 &= ~TIM_CCMR1_IC1F;
 800173c:	693b      	ldr	r3, [r7, #16]
 800173e:	f023 03f0 	bic.w	r3, r3, #240	; 0xf0
 8001742:	613b      	str	r3, [r7, #16]
  tmpccmr1 |= (TIM_ICFilter << 4U);
 8001744:	687b      	ldr	r3, [r7, #4]
 8001746:	011b      	lsls	r3, r3, #4
 8001748:	693a      	ldr	r2, [r7, #16]
 800174a:	4313      	orrs	r3, r2
 800174c:	613b      	str	r3, [r7, #16]

  /* Select the Polarity and set the CC1E Bit */
  tmpccer &= ~(TIM_CCER_CC1P | TIM_CCER_CC1NP);
 800174e:	697b      	ldr	r3, [r7, #20]
 8001750:	f023 030a 	bic.w	r3, r3, #10
 8001754:	617b      	str	r3, [r7, #20]
  tmpccer |= TIM_ICPolarity;
 8001756:	697a      	ldr	r2, [r7, #20]
 8001758:	68bb      	ldr	r3, [r7, #8]
 800175a:	4313      	orrs	r3, r2
 800175c:	617b      	str	r3, [r7, #20]

  /* Write to TIMx CCMR1 and CCER registers */
  TIMx->CCMR1 = tmpccmr1;
 800175e:	68fb      	ldr	r3, [r7, #12]
 8001760:	693a      	ldr	r2, [r7, #16]
 8001762:	619a      	str	r2, [r3, #24]
  TIMx->CCER = tmpccer;
 8001764:	68fb      	ldr	r3, [r7, #12]
 8001766:	697a      	ldr	r2, [r7, #20]
 8001768:	621a      	str	r2, [r3, #32]
}
 800176a:	bf00      	nop
 800176c:	371c      	adds	r7, #28
 800176e:	46bd      	mov	sp, r7
 8001770:	f85d 7b04 	ldr.w	r7, [sp], #4
 8001774:	4770      	bx	lr

08001776 <TIM_TI2_ConfigInputStage>:
  * @param  TIM_ICFilter Specifies the Input Capture Filter.
  *          This parameter must be a value between 0x00 and 0x0F.
  * @retval None
  */
static void TIM_TI2_ConfigInputStage(TIM_TypeDef *TIMx, uint32_t TIM_ICPolarity, uint32_t TIM_ICFilter)
{
 8001776:	b480      	push	{r7}
 8001778:	b087      	sub	sp, #28
 800177a:	af00      	add	r7, sp, #0
 800177c:	60f8      	str	r0, [r7, #12]
 800177e:	60b9      	str	r1, [r7, #8]
 8001780:	607a      	str	r2, [r7, #4]
  uint32_t tmpccmr1;
  uint32_t tmpccer;

  /* Disable the Channel 2: Reset the CC2E Bit */
  TIMx->CCER &= ~TIM_CCER_CC2E;
 8001782:	68fb      	ldr	r3, [r7, #12]
 8001784:	6a1b      	ldr	r3, [r3, #32]
 8001786:	f023 0210 	bic.w	r2, r3, #16
 800178a:	68fb      	ldr	r3, [r7, #12]
 800178c:	621a      	str	r2, [r3, #32]
  tmpccmr1 = TIMx->CCMR1;
 800178e:	68fb      	ldr	r3, [r7, #12]
 8001790:	699b      	ldr	r3, [r3, #24]
 8001792:	617b      	str	r3, [r7, #20]
  tmpccer = TIMx->CCER;
 8001794:	68fb      	ldr	r3, [r7, #12]
 8001796:	6a1b      	ldr	r3, [r3, #32]
 8001798:	613b      	str	r3, [r7, #16]

  /* Set the filter */
  tmpccmr1 &= ~TIM_CCMR1_IC2F;
 800179a:	697b      	ldr	r3, [r7, #20]
 800179c:	f423 4370 	bic.w	r3, r3, #61440	; 0xf000
 80017a0:	617b      	str	r3, [r7, #20]
  tmpccmr1 |= (TIM_ICFilter << 12U);
 80017a2:	687b      	ldr	r3, [r7, #4]
 80017a4:	031b      	lsls	r3, r3, #12
 80017a6:	697a      	ldr	r2, [r7, #20]
 80017a8:	4313      	orrs	r3, r2
 80017aa:	617b      	str	r3, [r7, #20]

  /* Select the Polarity and set the CC2E Bit */
  tmpccer &= ~(TIM_CCER_CC2P | TIM_CCER_CC2NP);
 80017ac:	693b      	ldr	r3, [r7, #16]
 80017ae:	f023 03a0 	bic.w	r3, r3, #160	; 0xa0
 80017b2:	613b      	str	r3, [r7, #16]
  tmpccer |= (TIM_ICPolarity << 4U);
 80017b4:	68bb      	ldr	r3, [r7, #8]
 80017b6:	011b      	lsls	r3, r3, #4
 80017b8:	693a      	ldr	r2, [r7, #16]
 80017ba:	4313      	orrs	r3, r2
 80017bc:	613b      	str	r3, [r7, #16]

  /* Write to TIMx CCMR1 and CCER registers */
  TIMx->CCMR1 = tmpccmr1 ;
 80017be:	68fb      	ldr	r3, [r7, #12]
 80017c0:	697a      	ldr	r2, [r7, #20]
 80017c2:	619a      	str	r2, [r3, #24]
  TIMx->CCER = tmpccer;
 80017c4:	68fb      	ldr	r3, [r7, #12]
 80017c6:	693a      	ldr	r2, [r7, #16]
 80017c8:	621a      	str	r2, [r3, #32]
}
 80017ca:	bf00      	nop
 80017cc:	371c      	adds	r7, #28
 80017ce:	46bd      	mov	sp, r7
 80017d0:	f85d 7b04 	ldr.w	r7, [sp], #4
 80017d4:	4770      	bx	lr

080017d6 <TIM_ITRx_SetConfig>:
  *            @arg TIM_TS_TI2FP2: Filtered Timer Input 2
  *            @arg TIM_TS_ETRF: External Trigger input
  * @retval None
  */
static void TIM_ITRx_SetConfig(TIM_TypeDef *TIMx, uint32_t InputTriggerSource)
{
 80017d6:	b480      	push	{r7}
 80017d8:	b085      	sub	sp, #20
 80017da:	af00      	add	r7, sp, #0
 80017dc:	6078      	str	r0, [r7, #4]
 80017de:	6039      	str	r1, [r7, #0]
  uint32_t tmpsmcr;

  /* Get the TIMx SMCR register value */
  tmpsmcr = TIMx->SMCR;
 80017e0:	687b      	ldr	r3, [r7, #4]
 80017e2:	689b      	ldr	r3, [r3, #8]
 80017e4:	60fb      	str	r3, [r7, #12]
  /* Reset the TS Bits */
  tmpsmcr &= ~TIM_SMCR_TS;
 80017e6:	68fb      	ldr	r3, [r7, #12]
 80017e8:	f023 0370 	bic.w	r3, r3, #112	; 0x70
 80017ec:	60fb      	str	r3, [r7, #12]
  /* Set the Input Trigger source and the slave mode*/
  tmpsmcr |= (InputTriggerSource | TIM_SLAVEMODE_EXTERNAL1);
 80017ee:	683a      	ldr	r2, [r7, #0]
 80017f0:	68fb      	ldr	r3, [r7, #12]
 80017f2:	4313      	orrs	r3, r2
 80017f4:	f043 0307 	orr.w	r3, r3, #7
 80017f8:	60fb      	str	r3, [r7, #12]
  /* Write to TIMx SMCR */
  TIMx->SMCR = tmpsmcr;
 80017fa:	687b      	ldr	r3, [r7, #4]
 80017fc:	68fa      	ldr	r2, [r7, #12]
 80017fe:	609a      	str	r2, [r3, #8]
}
 8001800:	bf00      	nop
 8001802:	3714      	adds	r7, #20
 8001804:	46bd      	mov	sp, r7
 8001806:	f85d 7b04 	ldr.w	r7, [sp], #4
 800180a:	4770      	bx	lr

0800180c <TIM_ETR_SetConfig>:
  *          This parameter must be a value between 0x00 and 0x0F
  * @retval None
  */
void TIM_ETR_SetConfig(TIM_TypeDef *TIMx, uint32_t TIM_ExtTRGPrescaler,
                       uint32_t TIM_ExtTRGPolarity, uint32_t ExtTRGFilter)
{
 800180c:	b480      	push	{r7}
 800180e:	b087      	sub	sp, #28
 8001810:	af00      	add	r7, sp, #0
 8001812:	60f8      	str	r0, [r7, #12]
 8001814:	60b9      	str	r1, [r7, #8]
 8001816:	607a      	str	r2, [r7, #4]
 8001818:	603b      	str	r3, [r7, #0]
  uint32_t tmpsmcr;

  tmpsmcr = TIMx->SMCR;
 800181a:	68fb      	ldr	r3, [r7, #12]
 800181c:	689b      	ldr	r3, [r3, #8]
 800181e:	617b      	str	r3, [r7, #20]

  /* Reset the ETR Bits */
  tmpsmcr &= ~(TIM_SMCR_ETF | TIM_SMCR_ETPS | TIM_SMCR_ECE | TIM_SMCR_ETP);
 8001820:	697b      	ldr	r3, [r7, #20]
 8001822:	f423 437f 	bic.w	r3, r3, #65280	; 0xff00
 8001826:	617b      	str	r3, [r7, #20]

  /* Set the Prescaler, the Filter value and the Polarity */
  tmpsmcr |= (uint32_t)(TIM_ExtTRGPrescaler | (TIM_ExtTRGPolarity | (ExtTRGFilter << 8U)));
 8001828:	683b      	ldr	r3, [r7, #0]
 800182a:	021a      	lsls	r2, r3, #8
 800182c:	687b      	ldr	r3, [r7, #4]
 800182e:	431a      	orrs	r2, r3
 8001830:	68bb      	ldr	r3, [r7, #8]
 8001832:	4313      	orrs	r3, r2
 8001834:	697a      	ldr	r2, [r7, #20]
 8001836:	4313      	orrs	r3, r2
 8001838:	617b      	str	r3, [r7, #20]

  /* Write to TIMx SMCR */
  TIMx->SMCR = tmpsmcr;
 800183a:	68fb      	ldr	r3, [r7, #12]
 800183c:	697a      	ldr	r2, [r7, #20]
 800183e:	609a      	str	r2, [r3, #8]
}
 8001840:	bf00      	nop
 8001842:	371c      	adds	r7, #28
 8001844:	46bd      	mov	sp, r7
 8001846:	f85d 7b04 	ldr.w	r7, [sp], #4
 800184a:	4770      	bx	lr

0800184c <HAL_TIMEx_MasterConfigSynchronization>:
  *         mode.
  * @retval HAL status
  */
HAL_StatusTypeDef HAL_TIMEx_MasterConfigSynchronization(TIM_HandleTypeDef *htim,
                                                        TIM_MasterConfigTypeDef *sMasterConfig)
{
 800184c:	b480      	push	{r7}
 800184e:	b085      	sub	sp, #20
 8001850:	af00      	add	r7, sp, #0
 8001852:	6078      	str	r0, [r7, #4]
 8001854:	6039      	str	r1, [r7, #0]
  assert_param(IS_TIM_MASTER_INSTANCE(htim->Instance));
  assert_param(IS_TIM_TRGO_SOURCE(sMasterConfig->MasterOutputTrigger));
  assert_param(IS_TIM_MSM_STATE(sMasterConfig->MasterSlaveMode));

  /* Check input state */
  __HAL_LOCK(htim);
 8001856:	687b      	ldr	r3, [r7, #4]
 8001858:	f893 303c 	ldrb.w	r3, [r3, #60]	; 0x3c
 800185c:	2b01      	cmp	r3, #1
 800185e:	d101      	bne.n	8001864 <HAL_TIMEx_MasterConfigSynchronization+0x18>
 8001860:	2302      	movs	r3, #2
 8001862:	e05a      	b.n	800191a <HAL_TIMEx_MasterConfigSynchronization+0xce>
 8001864:	687b      	ldr	r3, [r7, #4]
 8001866:	2201      	movs	r2, #1
 8001868:	f883 203c 	strb.w	r2, [r3, #60]	; 0x3c

  /* Change the handler state */
  htim->State = HAL_TIM_STATE_BUSY;
 800186c:	687b      	ldr	r3, [r7, #4]
 800186e:	2202      	movs	r2, #2
 8001870:	f883 203d 	strb.w	r2, [r3, #61]	; 0x3d

  /* Get the TIMx CR2 register value */
  tmpcr2 = htim->Instance->CR2;
 8001874:	687b      	ldr	r3, [r7, #4]
 8001876:	681b      	ldr	r3, [r3, #0]
 8001878:	685b      	ldr	r3, [r3, #4]
 800187a:	60fb      	str	r3, [r7, #12]

  /* Get the TIMx SMCR register value */
  tmpsmcr = htim->Instance->SMCR;
 800187c:	687b      	ldr	r3, [r7, #4]
 800187e:	681b      	ldr	r3, [r3, #0]
 8001880:	689b      	ldr	r3, [r3, #8]
 8001882:	60bb      	str	r3, [r7, #8]

  /* Reset the MMS Bits */
  tmpcr2 &= ~TIM_CR2_MMS;
 8001884:	68fb      	ldr	r3, [r7, #12]
 8001886:	f023 0370 	bic.w	r3, r3, #112	; 0x70
 800188a:	60fb      	str	r3, [r7, #12]
  /* Select the TRGO source */
  tmpcr2 |=  sMasterConfig->MasterOutputTrigger;
 800188c:	683b      	ldr	r3, [r7, #0]
 800188e:	681b      	ldr	r3, [r3, #0]
 8001890:	68fa      	ldr	r2, [r7, #12]
 8001892:	4313      	orrs	r3, r2
 8001894:	60fb      	str	r3, [r7, #12]

  /* Update TIMx CR2 */
  htim->Instance->CR2 = tmpcr2;
 8001896:	687b      	ldr	r3, [r7, #4]
 8001898:	681b      	ldr	r3, [r3, #0]
 800189a:	68fa      	ldr	r2, [r7, #12]
 800189c:	605a      	str	r2, [r3, #4]

  if (IS_TIM_SLAVE_INSTANCE(htim->Instance))
 800189e:	687b      	ldr	r3, [r7, #4]
 80018a0:	681b      	ldr	r3, [r3, #0]
 80018a2:	4a21      	ldr	r2, [pc, #132]	; (8001928 <HAL_TIMEx_MasterConfigSynchronization+0xdc>)
 80018a4:	4293      	cmp	r3, r2
 80018a6:	d022      	beq.n	80018ee <HAL_TIMEx_MasterConfigSynchronization+0xa2>
 80018a8:	687b      	ldr	r3, [r7, #4]
 80018aa:	681b      	ldr	r3, [r3, #0]
 80018ac:	f1b3 4f80 	cmp.w	r3, #1073741824	; 0x40000000
 80018b0:	d01d      	beq.n	80018ee <HAL_TIMEx_MasterConfigSynchronization+0xa2>
 80018b2:	687b      	ldr	r3, [r7, #4]
 80018b4:	681b      	ldr	r3, [r3, #0]
 80018b6:	4a1d      	ldr	r2, [pc, #116]	; (800192c <HAL_TIMEx_MasterConfigSynchronization+0xe0>)
 80018b8:	4293      	cmp	r3, r2
 80018ba:	d018      	beq.n	80018ee <HAL_TIMEx_MasterConfigSynchronization+0xa2>
 80018bc:	687b      	ldr	r3, [r7, #4]
 80018be:	681b      	ldr	r3, [r3, #0]
 80018c0:	4a1b      	ldr	r2, [pc, #108]	; (8001930 <HAL_TIMEx_MasterConfigSynchronization+0xe4>)
 80018c2:	4293      	cmp	r3, r2
 80018c4:	d013      	beq.n	80018ee <HAL_TIMEx_MasterConfigSynchronization+0xa2>
 80018c6:	687b      	ldr	r3, [r7, #4]
 80018c8:	681b      	ldr	r3, [r3, #0]
 80018ca:	4a1a      	ldr	r2, [pc, #104]	; (8001934 <HAL_TIMEx_MasterConfigSynchronization+0xe8>)
 80018cc:	4293      	cmp	r3, r2
 80018ce:	d00e      	beq.n	80018ee <HAL_TIMEx_MasterConfigSynchronization+0xa2>
 80018d0:	687b      	ldr	r3, [r7, #4]
 80018d2:	681b      	ldr	r3, [r3, #0]
 80018d4:	4a18      	ldr	r2, [pc, #96]	; (8001938 <HAL_TIMEx_MasterConfigSynchronization+0xec>)
 80018d6:	4293      	cmp	r3, r2
 80018d8:	d009      	beq.n	80018ee <HAL_TIMEx_MasterConfigSynchronization+0xa2>
 80018da:	687b      	ldr	r3, [r7, #4]
 80018dc:	681b      	ldr	r3, [r3, #0]
 80018de:	4a17      	ldr	r2, [pc, #92]	; (800193c <HAL_TIMEx_MasterConfigSynchronization+0xf0>)
 80018e0:	4293      	cmp	r3, r2
 80018e2:	d004      	beq.n	80018ee <HAL_TIMEx_MasterConfigSynchronization+0xa2>
 80018e4:	687b      	ldr	r3, [r7, #4]
 80018e6:	681b      	ldr	r3, [r3, #0]
 80018e8:	4a15      	ldr	r2, [pc, #84]	; (8001940 <HAL_TIMEx_MasterConfigSynchronization+0xf4>)
 80018ea:	4293      	cmp	r3, r2
 80018ec:	d10c      	bne.n	8001908 <HAL_TIMEx_MasterConfigSynchronization+0xbc>
  {
    /* Reset the MSM Bit */
    tmpsmcr &= ~TIM_SMCR_MSM;
 80018ee:	68bb      	ldr	r3, [r7, #8]
 80018f0:	f023 0380 	bic.w	r3, r3, #128	; 0x80
 80018f4:	60bb      	str	r3, [r7, #8]
    /* Set master mode */
    tmpsmcr |= sMasterConfig->MasterSlaveMode;
 80018f6:	683b      	ldr	r3, [r7, #0]
 80018f8:	685b      	ldr	r3, [r3, #4]
 80018fa:	68ba      	ldr	r2, [r7, #8]
 80018fc:	4313      	orrs	r3, r2
 80018fe:	60bb      	str	r3, [r7, #8]

    /* Update TIMx SMCR */
    htim->Instance->SMCR = tmpsmcr;
 8001900:	687b      	ldr	r3, [r7, #4]
 8001902:	681b      	ldr	r3, [r3, #0]
 8001904:	68ba      	ldr	r2, [r7, #8]
 8001906:	609a      	str	r2, [r3, #8]
  }

  /* Change the htim state */
  htim->State = HAL_TIM_STATE_READY;
 8001908:	687b      	ldr	r3, [r7, #4]
 800190a:	2201      	movs	r2, #1
 800190c:	f883 203d 	strb.w	r2, [r3, #61]	; 0x3d

  __HAL_UNLOCK(htim);
 8001910:	687b      	ldr	r3, [r7, #4]
 8001912:	2200      	movs	r2, #0
 8001914:	f883 203c 	strb.w	r2, [r3, #60]	; 0x3c

  return HAL_OK;
 8001918:	2300      	movs	r3, #0
}
 800191a:	4618      	mov	r0, r3
 800191c:	3714      	adds	r7, #20
 800191e:	46bd      	mov	sp, r7
 8001920:	f85d 7b04 	ldr.w	r7, [sp], #4
 8001924:	4770      	bx	lr
 8001926:	bf00      	nop
 8001928:	40010000 	.word	0x40010000
 800192c:	40000400 	.word	0x40000400
 8001930:	40000800 	.word	0x40000800
 8001934:	40000c00 	.word	0x40000c00
 8001938:	40010400 	.word	0x40010400
 800193c:	40014000 	.word	0x40014000
 8001940:	40001800 	.word	0x40001800

08001944 <HAL_TIMEx_CommutCallback>:
  * @brief  Hall commutation changed callback in non-blocking mode
  * @param  htim TIM handle
  * @retval None
  */
__weak void HAL_TIMEx_CommutCallback(TIM_HandleTypeDef *htim)
{
 8001944:	b480      	push	{r7}
 8001946:	b083      	sub	sp, #12
 8001948:	af00      	add	r7, sp, #0
 800194a:	6078      	str	r0, [r7, #4]
  UNUSED(htim);

  /* NOTE : This function should not be modified, when the callback is needed,
            the HAL_TIMEx_CommutCallback could be implemented in the user file
   */
}
 800194c:	bf00      	nop
 800194e:	370c      	adds	r7, #12
 8001950:	46bd      	mov	sp, r7
 8001952:	f85d 7b04 	ldr.w	r7, [sp], #4
 8001956:	4770      	bx	lr

08001958 <HAL_TIMEx_BreakCallback>:
  * @brief  Hall Break detection callback in non-blocking mode
  * @param  htim TIM handle
  * @retval None
  */
__weak void HAL_TIMEx_BreakCallback(TIM_HandleTypeDef *htim)
{
 8001958:	b480      	push	{r7}
 800195a:	b083      	sub	sp, #12
 800195c:	af00      	add	r7, sp, #0
 800195e:	6078      	str	r0, [r7, #4]
  UNUSED(htim);

  /* NOTE : This function should not be modified, when the callback is needed,
            the HAL_TIMEx_BreakCallback could be implemented in the user file
   */
}
 8001960:	bf00      	nop
 8001962:	370c      	adds	r7, #12
 8001964:	46bd      	mov	sp, r7
 8001966:	f85d 7b04 	ldr.w	r7, [sp], #4
 800196a:	4770      	bx	lr

0800196c <LL_EXTI_EnableIT_0_31>:
{
 800196c:	b480      	push	{r7}
 800196e:	b083      	sub	sp, #12
 8001970:	af00      	add	r7, sp, #0
 8001972:	6078      	str	r0, [r7, #4]
  SET_BIT(EXTI->IMR, ExtiLine);
 8001974:	4b05      	ldr	r3, [pc, #20]	; (800198c <LL_EXTI_EnableIT_0_31+0x20>)
 8001976:	681a      	ldr	r2, [r3, #0]
 8001978:	4904      	ldr	r1, [pc, #16]	; (800198c <LL_EXTI_EnableIT_0_31+0x20>)
 800197a:	687b      	ldr	r3, [r7, #4]
 800197c:	4313      	orrs	r3, r2
 800197e:	600b      	str	r3, [r1, #0]
}
 8001980:	bf00      	nop
 8001982:	370c      	adds	r7, #12
 8001984:	46bd      	mov	sp, r7
 8001986:	f85d 7b04 	ldr.w	r7, [sp], #4
 800198a:	4770      	bx	lr
 800198c:	40013c00 	.word	0x40013c00

08001990 <LL_EXTI_DisableIT_0_31>:
{
 8001990:	b480      	push	{r7}
 8001992:	b083      	sub	sp, #12
 8001994:	af00      	add	r7, sp, #0
 8001996:	6078      	str	r0, [r7, #4]
  CLEAR_BIT(EXTI->IMR, ExtiLine);
 8001998:	4b06      	ldr	r3, [pc, #24]	; (80019b4 <LL_EXTI_DisableIT_0_31+0x24>)
 800199a:	681a      	ldr	r2, [r3, #0]
 800199c:	687b      	ldr	r3, [r7, #4]
 800199e:	43db      	mvns	r3, r3
 80019a0:	4904      	ldr	r1, [pc, #16]	; (80019b4 <LL_EXTI_DisableIT_0_31+0x24>)
 80019a2:	4013      	ands	r3, r2
 80019a4:	600b      	str	r3, [r1, #0]
}
 80019a6:	bf00      	nop
 80019a8:	370c      	adds	r7, #12
 80019aa:	46bd      	mov	sp, r7
 80019ac:	f85d 7b04 	ldr.w	r7, [sp], #4
 80019b0:	4770      	bx	lr
 80019b2:	bf00      	nop
 80019b4:	40013c00 	.word	0x40013c00

080019b8 <LL_EXTI_EnableEvent_0_31>:
{
 80019b8:	b480      	push	{r7}
 80019ba:	b083      	sub	sp, #12
 80019bc:	af00      	add	r7, sp, #0
 80019be:	6078      	str	r0, [r7, #4]
  SET_BIT(EXTI->EMR, ExtiLine);
 80019c0:	4b05      	ldr	r3, [pc, #20]	; (80019d8 <LL_EXTI_EnableEvent_0_31+0x20>)
 80019c2:	685a      	ldr	r2, [r3, #4]
 80019c4:	4904      	ldr	r1, [pc, #16]	; (80019d8 <LL_EXTI_EnableEvent_0_31+0x20>)
 80019c6:	687b      	ldr	r3, [r7, #4]
 80019c8:	4313      	orrs	r3, r2
 80019ca:	604b      	str	r3, [r1, #4]
}
 80019cc:	bf00      	nop
 80019ce:	370c      	adds	r7, #12
 80019d0:	46bd      	mov	sp, r7
 80019d2:	f85d 7b04 	ldr.w	r7, [sp], #4
 80019d6:	4770      	bx	lr
 80019d8:	40013c00 	.word	0x40013c00

080019dc <LL_EXTI_DisableEvent_0_31>:
{
 80019dc:	b480      	push	{r7}
 80019de:	b083      	sub	sp, #12
 80019e0:	af00      	add	r7, sp, #0
 80019e2:	6078      	str	r0, [r7, #4]
  CLEAR_BIT(EXTI->EMR, ExtiLine);
 80019e4:	4b06      	ldr	r3, [pc, #24]	; (8001a00 <LL_EXTI_DisableEvent_0_31+0x24>)
 80019e6:	685a      	ldr	r2, [r3, #4]
 80019e8:	687b      	ldr	r3, [r7, #4]
 80019ea:	43db      	mvns	r3, r3
 80019ec:	4904      	ldr	r1, [pc, #16]	; (8001a00 <LL_EXTI_DisableEvent_0_31+0x24>)
 80019ee:	4013      	ands	r3, r2
 80019f0:	604b      	str	r3, [r1, #4]
}
 80019f2:	bf00      	nop
 80019f4:	370c      	adds	r7, #12
 80019f6:	46bd      	mov	sp, r7
 80019f8:	f85d 7b04 	ldr.w	r7, [sp], #4
 80019fc:	4770      	bx	lr
 80019fe:	bf00      	nop
 8001a00:	40013c00 	.word	0x40013c00

08001a04 <LL_EXTI_EnableRisingTrig_0_31>:
{
 8001a04:	b480      	push	{r7}
 8001a06:	b083      	sub	sp, #12
 8001a08:	af00      	add	r7, sp, #0
 8001a0a:	6078      	str	r0, [r7, #4]
  SET_BIT(EXTI->RTSR, ExtiLine);
 8001a0c:	4b05      	ldr	r3, [pc, #20]	; (8001a24 <LL_EXTI_EnableRisingTrig_0_31+0x20>)
 8001a0e:	689a      	ldr	r2, [r3, #8]
 8001a10:	4904      	ldr	r1, [pc, #16]	; (8001a24 <LL_EXTI_EnableRisingTrig_0_31+0x20>)
 8001a12:	687b      	ldr	r3, [r7, #4]
 8001a14:	4313      	orrs	r3, r2
 8001a16:	608b      	str	r3, [r1, #8]
}
 8001a18:	bf00      	nop
 8001a1a:	370c      	adds	r7, #12
 8001a1c:	46bd      	mov	sp, r7
 8001a1e:	f85d 7b04 	ldr.w	r7, [sp], #4
 8001a22:	4770      	bx	lr
 8001a24:	40013c00 	.word	0x40013c00

08001a28 <LL_EXTI_DisableRisingTrig_0_31>:
{
 8001a28:	b480      	push	{r7}
 8001a2a:	b083      	sub	sp, #12
 8001a2c:	af00      	add	r7, sp, #0
 8001a2e:	6078      	str	r0, [r7, #4]
  CLEAR_BIT(EXTI->RTSR, ExtiLine);
 8001a30:	4b06      	ldr	r3, [pc, #24]	; (8001a4c <LL_EXTI_DisableRisingTrig_0_31+0x24>)
 8001a32:	689a      	ldr	r2, [r3, #8]
 8001a34:	687b      	ldr	r3, [r7, #4]
 8001a36:	43db      	mvns	r3, r3
 8001a38:	4904      	ldr	r1, [pc, #16]	; (8001a4c <LL_EXTI_DisableRisingTrig_0_31+0x24>)
 8001a3a:	4013      	ands	r3, r2
 8001a3c:	608b      	str	r3, [r1, #8]
}
 8001a3e:	bf00      	nop
 8001a40:	370c      	adds	r7, #12
 8001a42:	46bd      	mov	sp, r7
 8001a44:	f85d 7b04 	ldr.w	r7, [sp], #4
 8001a48:	4770      	bx	lr
 8001a4a:	bf00      	nop
 8001a4c:	40013c00 	.word	0x40013c00

08001a50 <LL_EXTI_EnableFallingTrig_0_31>:
{
 8001a50:	b480      	push	{r7}
 8001a52:	b083      	sub	sp, #12
 8001a54:	af00      	add	r7, sp, #0
 8001a56:	6078      	str	r0, [r7, #4]
  SET_BIT(EXTI->FTSR, ExtiLine);
 8001a58:	4b05      	ldr	r3, [pc, #20]	; (8001a70 <LL_EXTI_EnableFallingTrig_0_31+0x20>)
 8001a5a:	68da      	ldr	r2, [r3, #12]
 8001a5c:	4904      	ldr	r1, [pc, #16]	; (8001a70 <LL_EXTI_EnableFallingTrig_0_31+0x20>)
 8001a5e:	687b      	ldr	r3, [r7, #4]
 8001a60:	4313      	orrs	r3, r2
 8001a62:	60cb      	str	r3, [r1, #12]
}
 8001a64:	bf00      	nop
 8001a66:	370c      	adds	r7, #12
 8001a68:	46bd      	mov	sp, r7
 8001a6a:	f85d 7b04 	ldr.w	r7, [sp], #4
 8001a6e:	4770      	bx	lr
 8001a70:	40013c00 	.word	0x40013c00

08001a74 <LL_EXTI_DisableFallingTrig_0_31>:
{
 8001a74:	b480      	push	{r7}
 8001a76:	b083      	sub	sp, #12
 8001a78:	af00      	add	r7, sp, #0
 8001a7a:	6078      	str	r0, [r7, #4]
  CLEAR_BIT(EXTI->FTSR, ExtiLine);
 8001a7c:	4b06      	ldr	r3, [pc, #24]	; (8001a98 <LL_EXTI_DisableFallingTrig_0_31+0x24>)
 8001a7e:	68da      	ldr	r2, [r3, #12]
 8001a80:	687b      	ldr	r3, [r7, #4]
 8001a82:	43db      	mvns	r3, r3
 8001a84:	4904      	ldr	r1, [pc, #16]	; (8001a98 <LL_EXTI_DisableFallingTrig_0_31+0x24>)
 8001a86:	4013      	ands	r3, r2
 8001a88:	60cb      	str	r3, [r1, #12]
}
 8001a8a:	bf00      	nop
 8001a8c:	370c      	adds	r7, #12
 8001a8e:	46bd      	mov	sp, r7
 8001a90:	f85d 7b04 	ldr.w	r7, [sp], #4
 8001a94:	4770      	bx	lr
 8001a96:	bf00      	nop
 8001a98:	40013c00 	.word	0x40013c00

08001a9c <LL_EXTI_Init>:
  * @retval An ErrorStatus enumeration value:
  *          - SUCCESS: EXTI registers are initialized
  *          - ERROR: not applicable
  */
uint32_t LL_EXTI_Init(LL_EXTI_InitTypeDef *EXTI_InitStruct)
{
 8001a9c:	b580      	push	{r7, lr}
 8001a9e:	b084      	sub	sp, #16
 8001aa0:	af00      	add	r7, sp, #0
 8001aa2:	6078      	str	r0, [r7, #4]
  ErrorStatus status = SUCCESS;
 8001aa4:	2300      	movs	r3, #0
 8001aa6:	73fb      	strb	r3, [r7, #15]
  assert_param(IS_LL_EXTI_LINE_0_31(EXTI_InitStruct->Line_0_31));
  assert_param(IS_FUNCTIONAL_STATE(EXTI_InitStruct->LineCommand));
  assert_param(IS_LL_EXTI_MODE(EXTI_InitStruct->Mode));

  /* ENABLE LineCommand */
  if (EXTI_InitStruct->LineCommand != DISABLE)
 8001aa8:	687b      	ldr	r3, [r7, #4]
 8001aaa:	791b      	ldrb	r3, [r3, #4]
 8001aac:	2b00      	cmp	r3, #0
 8001aae:	d065      	beq.n	8001b7c <LL_EXTI_Init+0xe0>
  {
    assert_param(IS_LL_EXTI_TRIGGER(EXTI_InitStruct->Trigger));

    /* Configure EXTI Lines in range from 0 to 31 */
    if (EXTI_InitStruct->Line_0_31 != LL_EXTI_LINE_NONE)
 8001ab0:	687b      	ldr	r3, [r7, #4]
 8001ab2:	681b      	ldr	r3, [r3, #0]
 8001ab4:	2b00      	cmp	r3, #0
 8001ab6:	d06c      	beq.n	8001b92 <LL_EXTI_Init+0xf6>
    {
      switch (EXTI_InitStruct->Mode)
 8001ab8:	687b      	ldr	r3, [r7, #4]
 8001aba:	795b      	ldrb	r3, [r3, #5]
 8001abc:	2b02      	cmp	r3, #2
 8001abe:	d01c      	beq.n	8001afa <LL_EXTI_Init+0x5e>
 8001ac0:	2b02      	cmp	r3, #2
 8001ac2:	dc25      	bgt.n	8001b10 <LL_EXTI_Init+0x74>
 8001ac4:	2b00      	cmp	r3, #0
 8001ac6:	d002      	beq.n	8001ace <LL_EXTI_Init+0x32>
 8001ac8:	2b01      	cmp	r3, #1
 8001aca:	d00b      	beq.n	8001ae4 <LL_EXTI_Init+0x48>
 8001acc:	e020      	b.n	8001b10 <LL_EXTI_Init+0x74>
      {
        case LL_EXTI_MODE_IT:
          /* First Disable Event on provided Lines */
          LL_EXTI_DisableEvent_0_31(EXTI_InitStruct->Line_0_31);
 8001ace:	687b      	ldr	r3, [r7, #4]
 8001ad0:	681b      	ldr	r3, [r3, #0]
 8001ad2:	4618      	mov	r0, r3
 8001ad4:	f7ff ff82 	bl	80019dc <LL_EXTI_DisableEvent_0_31>
          /* Then Enable IT on provided Lines */
          LL_EXTI_EnableIT_0_31(EXTI_InitStruct->Line_0_31);
 8001ad8:	687b      	ldr	r3, [r7, #4]
 8001ada:	681b      	ldr	r3, [r3, #0]
 8001adc:	4618      	mov	r0, r3
 8001ade:	f7ff ff45 	bl	800196c <LL_EXTI_EnableIT_0_31>
          break;
 8001ae2:	e018      	b.n	8001b16 <LL_EXTI_Init+0x7a>
        case LL_EXTI_MODE_EVENT:
          /* First Disable IT on provided Lines */
          LL_EXTI_DisableIT_0_31(EXTI_InitStruct->Line_0_31);
 8001ae4:	687b      	ldr	r3, [r7, #4]
 8001ae6:	681b      	ldr	r3, [r3, #0]
 8001ae8:	4618      	mov	r0, r3
 8001aea:	f7ff ff51 	bl	8001990 <LL_EXTI_DisableIT_0_31>
          /* Then Enable Event on provided Lines */
          LL_EXTI_EnableEvent_0_31(EXTI_InitStruct->Line_0_31);
 8001aee:	687b      	ldr	r3, [r7, #4]
 8001af0:	681b      	ldr	r3, [r3, #0]
 8001af2:	4618      	mov	r0, r3
 8001af4:	f7ff ff60 	bl	80019b8 <LL_EXTI_EnableEvent_0_31>
          break;
 8001af8:	e00d      	b.n	8001b16 <LL_EXTI_Init+0x7a>
        case LL_EXTI_MODE_IT_EVENT:
          /* Directly Enable IT & Event on provided Lines */
          LL_EXTI_EnableIT_0_31(EXTI_InitStruct->Line_0_31);
 8001afa:	687b      	ldr	r3, [r7, #4]
 8001afc:	681b      	ldr	r3, [r3, #0]
 8001afe:	4618      	mov	r0, r3
 8001b00:	f7ff ff34 	bl	800196c <LL_EXTI_EnableIT_0_31>
          LL_EXTI_EnableEvent_0_31(EXTI_InitStruct->Line_0_31);
 8001b04:	687b      	ldr	r3, [r7, #4]
 8001b06:	681b      	ldr	r3, [r3, #0]
 8001b08:	4618      	mov	r0, r3
 8001b0a:	f7ff ff55 	bl	80019b8 <LL_EXTI_EnableEvent_0_31>
          break;
 8001b0e:	e002      	b.n	8001b16 <LL_EXTI_Init+0x7a>
        default:
          status = ERROR;
 8001b10:	2301      	movs	r3, #1
 8001b12:	73fb      	strb	r3, [r7, #15]
          break;
 8001b14:	bf00      	nop
      }
      if (EXTI_InitStruct->Trigger != LL_EXTI_TRIGGER_NONE)
 8001b16:	687b      	ldr	r3, [r7, #4]
 8001b18:	799b      	ldrb	r3, [r3, #6]
 8001b1a:	2b00      	cmp	r3, #0
 8001b1c:	d039      	beq.n	8001b92 <LL_EXTI_Init+0xf6>
      {
        switch (EXTI_InitStruct->Trigger)
 8001b1e:	687b      	ldr	r3, [r7, #4]
 8001b20:	799b      	ldrb	r3, [r3, #6]
 8001b22:	2b03      	cmp	r3, #3
 8001b24:	d01c      	beq.n	8001b60 <LL_EXTI_Init+0xc4>
 8001b26:	2b03      	cmp	r3, #3
 8001b28:	dc25      	bgt.n	8001b76 <LL_EXTI_Init+0xda>
 8001b2a:	2b01      	cmp	r3, #1
 8001b2c:	d002      	beq.n	8001b34 <LL_EXTI_Init+0x98>
 8001b2e:	2b02      	cmp	r3, #2
 8001b30:	d00b      	beq.n	8001b4a <LL_EXTI_Init+0xae>
 8001b32:	e020      	b.n	8001b76 <LL_EXTI_Init+0xda>
        {
          case LL_EXTI_TRIGGER_RISING:
            /* First Disable Falling Trigger on provided Lines */
            LL_EXTI_DisableFallingTrig_0_31(EXTI_InitStruct->Line_0_31);
 8001b34:	687b      	ldr	r3, [r7, #4]
 8001b36:	681b      	ldr	r3, [r3, #0]
 8001b38:	4618      	mov	r0, r3
 8001b3a:	f7ff ff9b 	bl	8001a74 <LL_EXTI_DisableFallingTrig_0_31>
            /* Then Enable Rising Trigger on provided Lines */
            LL_EXTI_EnableRisingTrig_0_31(EXTI_InitStruct->Line_0_31);
 8001b3e:	687b      	ldr	r3, [r7, #4]
 8001b40:	681b      	ldr	r3, [r3, #0]
 8001b42:	4618      	mov	r0, r3
 8001b44:	f7ff ff5e 	bl	8001a04 <LL_EXTI_EnableRisingTrig_0_31>
            break;
 8001b48:	e024      	b.n	8001b94 <LL_EXTI_Init+0xf8>
          case LL_EXTI_TRIGGER_FALLING:
            /* First Disable Rising Trigger on provided Lines */
            LL_EXTI_DisableRisingTrig_0_31(EXTI_InitStruct->Line_0_31);
 8001b4a:	687b      	ldr	r3, [r7, #4]
 8001b4c:	681b      	ldr	r3, [r3, #0]
 8001b4e:	4618      	mov	r0, r3
 8001b50:	f7ff ff6a 	bl	8001a28 <LL_EXTI_DisableRisingTrig_0_31>
            /* Then Enable Falling Trigger on provided Lines */
            LL_EXTI_EnableFallingTrig_0_31(EXTI_InitStruct->Line_0_31);
 8001b54:	687b      	ldr	r3, [r7, #4]
 8001b56:	681b      	ldr	r3, [r3, #0]
 8001b58:	4618      	mov	r0, r3
 8001b5a:	f7ff ff79 	bl	8001a50 <LL_EXTI_EnableFallingTrig_0_31>
            break;
 8001b5e:	e019      	b.n	8001b94 <LL_EXTI_Init+0xf8>
          case LL_EXTI_TRIGGER_RISING_FALLING:
            LL_EXTI_EnableRisingTrig_0_31(EXTI_InitStruct->Line_0_31);
 8001b60:	687b      	ldr	r3, [r7, #4]
 8001b62:	681b      	ldr	r3, [r3, #0]
 8001b64:	4618      	mov	r0, r3
 8001b66:	f7ff ff4d 	bl	8001a04 <LL_EXTI_EnableRisingTrig_0_31>
            LL_EXTI_EnableFallingTrig_0_31(EXTI_InitStruct->Line_0_31);
 8001b6a:	687b      	ldr	r3, [r7, #4]
 8001b6c:	681b      	ldr	r3, [r3, #0]
 8001b6e:	4618      	mov	r0, r3
 8001b70:	f7ff ff6e 	bl	8001a50 <LL_EXTI_EnableFallingTrig_0_31>
            break;
 8001b74:	e00e      	b.n	8001b94 <LL_EXTI_Init+0xf8>
          default:
            status = ERROR;
 8001b76:	2301      	movs	r3, #1
 8001b78:	73fb      	strb	r3, [r7, #15]
            break;
 8001b7a:	e00b      	b.n	8001b94 <LL_EXTI_Init+0xf8>
  }
  /* DISABLE LineCommand */
  else
  {
    /* De-configure EXTI Lines in range from 0 to 31 */
    LL_EXTI_DisableIT_0_31(EXTI_InitStruct->Line_0_31);
 8001b7c:	687b      	ldr	r3, [r7, #4]
 8001b7e:	681b      	ldr	r3, [r3, #0]
 8001b80:	4618      	mov	r0, r3
 8001b82:	f7ff ff05 	bl	8001990 <LL_EXTI_DisableIT_0_31>
    LL_EXTI_DisableEvent_0_31(EXTI_InitStruct->Line_0_31);
 8001b86:	687b      	ldr	r3, [r7, #4]
 8001b88:	681b      	ldr	r3, [r3, #0]
 8001b8a:	4618      	mov	r0, r3
 8001b8c:	f7ff ff26 	bl	80019dc <LL_EXTI_DisableEvent_0_31>
 8001b90:	e000      	b.n	8001b94 <LL_EXTI_Init+0xf8>
      }
 8001b92:	bf00      	nop
  }
  return status;
 8001b94:	7bfb      	ldrb	r3, [r7, #15]
}
 8001b96:	4618      	mov	r0, r3
 8001b98:	3710      	adds	r7, #16
 8001b9a:	46bd      	mov	sp, r7
 8001b9c:	bd80      	pop	{r7, pc}

08001b9e <LL_GPIO_SetPinMode>:
{
 8001b9e:	b480      	push	{r7}
 8001ba0:	b089      	sub	sp, #36	; 0x24
 8001ba2:	af00      	add	r7, sp, #0
 8001ba4:	60f8      	str	r0, [r7, #12]
 8001ba6:	60b9      	str	r1, [r7, #8]
 8001ba8:	607a      	str	r2, [r7, #4]
  MODIFY_REG(GPIOx->MODER, (GPIO_MODER_MODER0 << (POSITION_VAL(Pin) * 2U)), (Mode << (POSITION_VAL(Pin) * 2U)));
 8001baa:	68fb      	ldr	r3, [r7, #12]
 8001bac:	681a      	ldr	r2, [r3, #0]
 8001bae:	68bb      	ldr	r3, [r7, #8]
 8001bb0:	617b      	str	r3, [r7, #20]
   __ASM volatile ("rbit %0, %1" : "=r" (result) : "r" (value) );
 8001bb2:	697b      	ldr	r3, [r7, #20]
 8001bb4:	fa93 f3a3 	rbit	r3, r3
 8001bb8:	613b      	str	r3, [r7, #16]
  return result;
 8001bba:	693b      	ldr	r3, [r7, #16]
 8001bbc:	fab3 f383 	clz	r3, r3
 8001bc0:	b2db      	uxtb	r3, r3
 8001bc2:	005b      	lsls	r3, r3, #1
 8001bc4:	2103      	movs	r1, #3
 8001bc6:	fa01 f303 	lsl.w	r3, r1, r3
 8001bca:	43db      	mvns	r3, r3
 8001bcc:	401a      	ands	r2, r3
 8001bce:	68bb      	ldr	r3, [r7, #8]
 8001bd0:	61fb      	str	r3, [r7, #28]
   __ASM volatile ("rbit %0, %1" : "=r" (result) : "r" (value) );
 8001bd2:	69fb      	ldr	r3, [r7, #28]
 8001bd4:	fa93 f3a3 	rbit	r3, r3
 8001bd8:	61bb      	str	r3, [r7, #24]
  return result;
 8001bda:	69bb      	ldr	r3, [r7, #24]
 8001bdc:	fab3 f383 	clz	r3, r3
 8001be0:	b2db      	uxtb	r3, r3
 8001be2:	005b      	lsls	r3, r3, #1
 8001be4:	6879      	ldr	r1, [r7, #4]
 8001be6:	fa01 f303 	lsl.w	r3, r1, r3
 8001bea:	431a      	orrs	r2, r3
 8001bec:	68fb      	ldr	r3, [r7, #12]
 8001bee:	601a      	str	r2, [r3, #0]
}
 8001bf0:	bf00      	nop
 8001bf2:	3724      	adds	r7, #36	; 0x24
 8001bf4:	46bd      	mov	sp, r7
 8001bf6:	f85d 7b04 	ldr.w	r7, [sp], #4
 8001bfa:	4770      	bx	lr

08001bfc <LL_GPIO_SetPinOutputType>:
{
 8001bfc:	b480      	push	{r7}
 8001bfe:	b085      	sub	sp, #20
 8001c00:	af00      	add	r7, sp, #0
 8001c02:	60f8      	str	r0, [r7, #12]
 8001c04:	60b9      	str	r1, [r7, #8]
 8001c06:	607a      	str	r2, [r7, #4]
  MODIFY_REG(GPIOx->OTYPER, PinMask, (PinMask * OutputType));
 8001c08:	68fb      	ldr	r3, [r7, #12]
 8001c0a:	685a      	ldr	r2, [r3, #4]
 8001c0c:	68bb      	ldr	r3, [r7, #8]
 8001c0e:	43db      	mvns	r3, r3
 8001c10:	401a      	ands	r2, r3
 8001c12:	68bb      	ldr	r3, [r7, #8]
 8001c14:	6879      	ldr	r1, [r7, #4]
 8001c16:	fb01 f303 	mul.w	r3, r1, r3
 8001c1a:	431a      	orrs	r2, r3
 8001c1c:	68fb      	ldr	r3, [r7, #12]
 8001c1e:	605a      	str	r2, [r3, #4]
}
 8001c20:	bf00      	nop
 8001c22:	3714      	adds	r7, #20
 8001c24:	46bd      	mov	sp, r7
 8001c26:	f85d 7b04 	ldr.w	r7, [sp], #4
 8001c2a:	4770      	bx	lr

08001c2c <LL_GPIO_SetPinSpeed>:
{
 8001c2c:	b480      	push	{r7}
 8001c2e:	b089      	sub	sp, #36	; 0x24
 8001c30:	af00      	add	r7, sp, #0
 8001c32:	60f8      	str	r0, [r7, #12]
 8001c34:	60b9      	str	r1, [r7, #8]
 8001c36:	607a      	str	r2, [r7, #4]
  MODIFY_REG(GPIOx->OSPEEDR, (GPIO_OSPEEDER_OSPEEDR0 << (POSITION_VAL(Pin) * 2U)),
 8001c38:	68fb      	ldr	r3, [r7, #12]
 8001c3a:	689a      	ldr	r2, [r3, #8]
 8001c3c:	68bb      	ldr	r3, [r7, #8]
 8001c3e:	617b      	str	r3, [r7, #20]
   __ASM volatile ("rbit %0, %1" : "=r" (result) : "r" (value) );
 8001c40:	697b      	ldr	r3, [r7, #20]
 8001c42:	fa93 f3a3 	rbit	r3, r3
 8001c46:	613b      	str	r3, [r7, #16]
  return result;
 8001c48:	693b      	ldr	r3, [r7, #16]
 8001c4a:	fab3 f383 	clz	r3, r3
 8001c4e:	b2db      	uxtb	r3, r3
 8001c50:	005b      	lsls	r3, r3, #1
 8001c52:	2103      	movs	r1, #3
 8001c54:	fa01 f303 	lsl.w	r3, r1, r3
 8001c58:	43db      	mvns	r3, r3
 8001c5a:	401a      	ands	r2, r3
 8001c5c:	68bb      	ldr	r3, [r7, #8]
 8001c5e:	61fb      	str	r3, [r7, #28]
   __ASM volatile ("rbit %0, %1" : "=r" (result) : "r" (value) );
 8001c60:	69fb      	ldr	r3, [r7, #28]
 8001c62:	fa93 f3a3 	rbit	r3, r3
 8001c66:	61bb      	str	r3, [r7, #24]
  return result;
 8001c68:	69bb      	ldr	r3, [r7, #24]
 8001c6a:	fab3 f383 	clz	r3, r3
 8001c6e:	b2db      	uxtb	r3, r3
 8001c70:	005b      	lsls	r3, r3, #1
 8001c72:	6879      	ldr	r1, [r7, #4]
 8001c74:	fa01 f303 	lsl.w	r3, r1, r3
 8001c78:	431a      	orrs	r2, r3
 8001c7a:	68fb      	ldr	r3, [r7, #12]
 8001c7c:	609a      	str	r2, [r3, #8]
}
 8001c7e:	bf00      	nop
 8001c80:	3724      	adds	r7, #36	; 0x24
 8001c82:	46bd      	mov	sp, r7
 8001c84:	f85d 7b04 	ldr.w	r7, [sp], #4
 8001c88:	4770      	bx	lr

08001c8a <LL_GPIO_SetPinPull>:
{
 8001c8a:	b480      	push	{r7}
 8001c8c:	b089      	sub	sp, #36	; 0x24
 8001c8e:	af00      	add	r7, sp, #0
 8001c90:	60f8      	str	r0, [r7, #12]
 8001c92:	60b9      	str	r1, [r7, #8]
 8001c94:	607a      	str	r2, [r7, #4]
  MODIFY_REG(GPIOx->PUPDR, (GPIO_PUPDR_PUPDR0 << (POSITION_VAL(Pin) * 2U)), (Pull << (POSITION_VAL(Pin) * 2U)));
 8001c96:	68fb      	ldr	r3, [r7, #12]
 8001c98:	68da      	ldr	r2, [r3, #12]
 8001c9a:	68bb      	ldr	r3, [r7, #8]
 8001c9c:	617b      	str	r3, [r7, #20]
   __ASM volatile ("rbit %0, %1" : "=r" (result) : "r" (value) );
 8001c9e:	697b      	ldr	r3, [r7, #20]
 8001ca0:	fa93 f3a3 	rbit	r3, r3
 8001ca4:	613b      	str	r3, [r7, #16]
  return result;
 8001ca6:	693b      	ldr	r3, [r7, #16]
 8001ca8:	fab3 f383 	clz	r3, r3
 8001cac:	b2db      	uxtb	r3, r3
 8001cae:	005b      	lsls	r3, r3, #1
 8001cb0:	2103      	movs	r1, #3
 8001cb2:	fa01 f303 	lsl.w	r3, r1, r3
 8001cb6:	43db      	mvns	r3, r3
 8001cb8:	401a      	ands	r2, r3
 8001cba:	68bb      	ldr	r3, [r7, #8]
 8001cbc:	61fb      	str	r3, [r7, #28]
   __ASM volatile ("rbit %0, %1" : "=r" (result) : "r" (value) );
 8001cbe:	69fb      	ldr	r3, [r7, #28]
 8001cc0:	fa93 f3a3 	rbit	r3, r3
 8001cc4:	61bb      	str	r3, [r7, #24]
  return result;
 8001cc6:	69bb      	ldr	r3, [r7, #24]
 8001cc8:	fab3 f383 	clz	r3, r3
 8001ccc:	b2db      	uxtb	r3, r3
 8001cce:	005b      	lsls	r3, r3, #1
 8001cd0:	6879      	ldr	r1, [r7, #4]
 8001cd2:	fa01 f303 	lsl.w	r3, r1, r3
 8001cd6:	431a      	orrs	r2, r3
 8001cd8:	68fb      	ldr	r3, [r7, #12]
 8001cda:	60da      	str	r2, [r3, #12]
}
 8001cdc:	bf00      	nop
 8001cde:	3724      	adds	r7, #36	; 0x24
 8001ce0:	46bd      	mov	sp, r7
 8001ce2:	f85d 7b04 	ldr.w	r7, [sp], #4
 8001ce6:	4770      	bx	lr

08001ce8 <LL_GPIO_SetAFPin_0_7>:
{
 8001ce8:	b480      	push	{r7}
 8001cea:	b089      	sub	sp, #36	; 0x24
 8001cec:	af00      	add	r7, sp, #0
 8001cee:	60f8      	str	r0, [r7, #12]
 8001cf0:	60b9      	str	r1, [r7, #8]
 8001cf2:	607a      	str	r2, [r7, #4]
  MODIFY_REG(GPIOx->AFR[0], (GPIO_AFRL_AFSEL0 << (POSITION_VAL(Pin) * 4U)),
 8001cf4:	68fb      	ldr	r3, [r7, #12]
 8001cf6:	6a1a      	ldr	r2, [r3, #32]
 8001cf8:	68bb      	ldr	r3, [r7, #8]
 8001cfa:	617b      	str	r3, [r7, #20]
   __ASM volatile ("rbit %0, %1" : "=r" (result) : "r" (value) );
 8001cfc:	697b      	ldr	r3, [r7, #20]
 8001cfe:	fa93 f3a3 	rbit	r3, r3
 8001d02:	613b      	str	r3, [r7, #16]
  return result;
 8001d04:	693b      	ldr	r3, [r7, #16]
 8001d06:	fab3 f383 	clz	r3, r3
 8001d0a:	b2db      	uxtb	r3, r3
 8001d0c:	009b      	lsls	r3, r3, #2
 8001d0e:	210f      	movs	r1, #15
 8001d10:	fa01 f303 	lsl.w	r3, r1, r3
 8001d14:	43db      	mvns	r3, r3
 8001d16:	401a      	ands	r2, r3
 8001d18:	68bb      	ldr	r3, [r7, #8]
 8001d1a:	61fb      	str	r3, [r7, #28]
   __ASM volatile ("rbit %0, %1" : "=r" (result) : "r" (value) );
 8001d1c:	69fb      	ldr	r3, [r7, #28]
 8001d1e:	fa93 f3a3 	rbit	r3, r3
 8001d22:	61bb      	str	r3, [r7, #24]
  return result;
 8001d24:	69bb      	ldr	r3, [r7, #24]
 8001d26:	fab3 f383 	clz	r3, r3
 8001d2a:	b2db      	uxtb	r3, r3
 8001d2c:	009b      	lsls	r3, r3, #2
 8001d2e:	6879      	ldr	r1, [r7, #4]
 8001d30:	fa01 f303 	lsl.w	r3, r1, r3
 8001d34:	431a      	orrs	r2, r3
 8001d36:	68fb      	ldr	r3, [r7, #12]
 8001d38:	621a      	str	r2, [r3, #32]
}
 8001d3a:	bf00      	nop
 8001d3c:	3724      	adds	r7, #36	; 0x24
 8001d3e:	46bd      	mov	sp, r7
 8001d40:	f85d 7b04 	ldr.w	r7, [sp], #4
 8001d44:	4770      	bx	lr

08001d46 <LL_GPIO_SetAFPin_8_15>:
{
 8001d46:	b480      	push	{r7}
 8001d48:	b089      	sub	sp, #36	; 0x24
 8001d4a:	af00      	add	r7, sp, #0
 8001d4c:	60f8      	str	r0, [r7, #12]
 8001d4e:	60b9      	str	r1, [r7, #8]
 8001d50:	607a      	str	r2, [r7, #4]
  MODIFY_REG(GPIOx->AFR[1], (GPIO_AFRH_AFSEL8 << (POSITION_VAL(Pin >> 8U) * 4U)),
 8001d52:	68fb      	ldr	r3, [r7, #12]
 8001d54:	6a5a      	ldr	r2, [r3, #36]	; 0x24
 8001d56:	68bb      	ldr	r3, [r7, #8]
 8001d58:	0a1b      	lsrs	r3, r3, #8
 8001d5a:	617b      	str	r3, [r7, #20]
   __ASM volatile ("rbit %0, %1" : "=r" (result) : "r" (value) );
 8001d5c:	697b      	ldr	r3, [r7, #20]
 8001d5e:	fa93 f3a3 	rbit	r3, r3
 8001d62:	613b      	str	r3, [r7, #16]
  return result;
 8001d64:	693b      	ldr	r3, [r7, #16]
 8001d66:	fab3 f383 	clz	r3, r3
 8001d6a:	b2db      	uxtb	r3, r3
 8001d6c:	009b      	lsls	r3, r3, #2
 8001d6e:	210f      	movs	r1, #15
 8001d70:	fa01 f303 	lsl.w	r3, r1, r3
 8001d74:	43db      	mvns	r3, r3
 8001d76:	401a      	ands	r2, r3
 8001d78:	68bb      	ldr	r3, [r7, #8]
 8001d7a:	0a1b      	lsrs	r3, r3, #8
 8001d7c:	61fb      	str	r3, [r7, #28]
   __ASM volatile ("rbit %0, %1" : "=r" (result) : "r" (value) );
 8001d7e:	69fb      	ldr	r3, [r7, #28]
 8001d80:	fa93 f3a3 	rbit	r3, r3
 8001d84:	61bb      	str	r3, [r7, #24]
  return result;
 8001d86:	69bb      	ldr	r3, [r7, #24]
 8001d88:	fab3 f383 	clz	r3, r3
 8001d8c:	b2db      	uxtb	r3, r3
 8001d8e:	009b      	lsls	r3, r3, #2
 8001d90:	6879      	ldr	r1, [r7, #4]
 8001d92:	fa01 f303 	lsl.w	r3, r1, r3
 8001d96:	431a      	orrs	r2, r3
 8001d98:	68fb      	ldr	r3, [r7, #12]
 8001d9a:	625a      	str	r2, [r3, #36]	; 0x24
}
 8001d9c:	bf00      	nop
 8001d9e:	3724      	adds	r7, #36	; 0x24
 8001da0:	46bd      	mov	sp, r7
 8001da2:	f85d 7b04 	ldr.w	r7, [sp], #4
 8001da6:	4770      	bx	lr

08001da8 <LL_GPIO_Init>:
  * @retval An ErrorStatus enumeration value:
  *          - SUCCESS: GPIO registers are initialized according to GPIO_InitStruct content
  *          - ERROR:   Not applicable
  */
ErrorStatus LL_GPIO_Init(GPIO_TypeDef *GPIOx, LL_GPIO_InitTypeDef *GPIO_InitStruct)
{
 8001da8:	b580      	push	{r7, lr}
 8001daa:	b088      	sub	sp, #32
 8001dac:	af00      	add	r7, sp, #0
 8001dae:	6078      	str	r0, [r7, #4]
 8001db0:	6039      	str	r1, [r7, #0]
  uint32_t pinpos     = 0x00000000U;
 8001db2:	2300      	movs	r3, #0
 8001db4:	61fb      	str	r3, [r7, #28]
  uint32_t currentpin = 0x00000000U;
 8001db6:	2300      	movs	r3, #0
 8001db8:	61bb      	str	r3, [r7, #24]
  assert_param(IS_LL_GPIO_MODE(GPIO_InitStruct->Mode));
  assert_param(IS_LL_GPIO_PULL(GPIO_InitStruct->Pull));

  /* ------------------------- Configure the port pins ---------------- */
  /* Initialize  pinpos on first pin set */
  pinpos = POSITION_VAL(GPIO_InitStruct->Pin);
 8001dba:	683b      	ldr	r3, [r7, #0]
 8001dbc:	681b      	ldr	r3, [r3, #0]
 8001dbe:	617b      	str	r3, [r7, #20]
   __ASM volatile ("rbit %0, %1" : "=r" (result) : "r" (value) );
 8001dc0:	697b      	ldr	r3, [r7, #20]
 8001dc2:	fa93 f3a3 	rbit	r3, r3
 8001dc6:	613b      	str	r3, [r7, #16]
  return result;
 8001dc8:	693b      	ldr	r3, [r7, #16]
 8001dca:	fab3 f383 	clz	r3, r3
 8001dce:	b2db      	uxtb	r3, r3
 8001dd0:	61fb      	str	r3, [r7, #28]
  
  /* Configure the port pins */
  while (((GPIO_InitStruct->Pin) >> pinpos) != 0x00000000U)
 8001dd2:	e050      	b.n	8001e76 <LL_GPIO_Init+0xce>
  {
    /* Get current io position */
    currentpin = (GPIO_InitStruct->Pin) & (0x00000001U << pinpos);
 8001dd4:	683b      	ldr	r3, [r7, #0]
 8001dd6:	681a      	ldr	r2, [r3, #0]
 8001dd8:	2101      	movs	r1, #1
 8001dda:	69fb      	ldr	r3, [r7, #28]
 8001ddc:	fa01 f303 	lsl.w	r3, r1, r3
 8001de0:	4013      	ands	r3, r2
 8001de2:	61bb      	str	r3, [r7, #24]
    
    if (currentpin)
 8001de4:	69bb      	ldr	r3, [r7, #24]
 8001de6:	2b00      	cmp	r3, #0
 8001de8:	d042      	beq.n	8001e70 <LL_GPIO_Init+0xc8>
    {
      
      if ((GPIO_InitStruct->Mode == LL_GPIO_MODE_OUTPUT) || (GPIO_InitStruct->Mode == LL_GPIO_MODE_ALTERNATE))
 8001dea:	683b      	ldr	r3, [r7, #0]
 8001dec:	685b      	ldr	r3, [r3, #4]
 8001dee:	2b01      	cmp	r3, #1
 8001df0:	d003      	beq.n	8001dfa <LL_GPIO_Init+0x52>
 8001df2:	683b      	ldr	r3, [r7, #0]
 8001df4:	685b      	ldr	r3, [r3, #4]
 8001df6:	2b02      	cmp	r3, #2
 8001df8:	d10d      	bne.n	8001e16 <LL_GPIO_Init+0x6e>
      {
        /* Check Speed mode parameters */
        assert_param(IS_LL_GPIO_SPEED(GPIO_InitStruct->Speed));
        
        /* Speed mode configuration */
        LL_GPIO_SetPinSpeed(GPIOx, currentpin, GPIO_InitStruct->Speed);
 8001dfa:	683b      	ldr	r3, [r7, #0]
 8001dfc:	689b      	ldr	r3, [r3, #8]
 8001dfe:	461a      	mov	r2, r3
 8001e00:	69b9      	ldr	r1, [r7, #24]
 8001e02:	6878      	ldr	r0, [r7, #4]
 8001e04:	f7ff ff12 	bl	8001c2c <LL_GPIO_SetPinSpeed>
        
        /* Check Output mode parameters */
        assert_param(IS_LL_GPIO_OUTPUT_TYPE(GPIO_InitStruct->OutputType));
        
        /* Output mode configuration*/
        LL_GPIO_SetPinOutputType(GPIOx, currentpin, GPIO_InitStruct->OutputType);
 8001e08:	683b      	ldr	r3, [r7, #0]
 8001e0a:	68db      	ldr	r3, [r3, #12]
 8001e0c:	461a      	mov	r2, r3
 8001e0e:	69b9      	ldr	r1, [r7, #24]
 8001e10:	6878      	ldr	r0, [r7, #4]
 8001e12:	f7ff fef3 	bl	8001bfc <LL_GPIO_SetPinOutputType>
      }
      
      /* Pull-up Pull down resistor configuration*/
      LL_GPIO_SetPinPull(GPIOx, currentpin, GPIO_InitStruct->Pull);
 8001e16:	683b      	ldr	r3, [r7, #0]
 8001e18:	691b      	ldr	r3, [r3, #16]
 8001e1a:	461a      	mov	r2, r3
 8001e1c:	69b9      	ldr	r1, [r7, #24]
 8001e1e:	6878      	ldr	r0, [r7, #4]
 8001e20:	f7ff ff33 	bl	8001c8a <LL_GPIO_SetPinPull>
      
      if (GPIO_InitStruct->Mode == LL_GPIO_MODE_ALTERNATE)
 8001e24:	683b      	ldr	r3, [r7, #0]
 8001e26:	685b      	ldr	r3, [r3, #4]
 8001e28:	2b02      	cmp	r3, #2
 8001e2a:	d11a      	bne.n	8001e62 <LL_GPIO_Init+0xba>
 8001e2c:	69bb      	ldr	r3, [r7, #24]
 8001e2e:	60fb      	str	r3, [r7, #12]
   __ASM volatile ("rbit %0, %1" : "=r" (result) : "r" (value) );
 8001e30:	68fb      	ldr	r3, [r7, #12]
 8001e32:	fa93 f3a3 	rbit	r3, r3
 8001e36:	60bb      	str	r3, [r7, #8]
  return result;
 8001e38:	68bb      	ldr	r3, [r7, #8]
      {
        /* Check Alternate parameter */
        assert_param(IS_LL_GPIO_ALTERNATE(GPIO_InitStruct->Alternate));
        
        /* Speed mode configuration */
        if (POSITION_VAL(currentpin) < 0x00000008U)
 8001e3a:	fab3 f383 	clz	r3, r3
 8001e3e:	b2db      	uxtb	r3, r3
 8001e40:	2b07      	cmp	r3, #7
 8001e42:	d807      	bhi.n	8001e54 <LL_GPIO_Init+0xac>
        {
          LL_GPIO_SetAFPin_0_7(GPIOx, currentpin, GPIO_InitStruct->Alternate);
 8001e44:	683b      	ldr	r3, [r7, #0]
 8001e46:	695b      	ldr	r3, [r3, #20]
 8001e48:	461a      	mov	r2, r3
 8001e4a:	69b9      	ldr	r1, [r7, #24]
 8001e4c:	6878      	ldr	r0, [r7, #4]
 8001e4e:	f7ff ff4b 	bl	8001ce8 <LL_GPIO_SetAFPin_0_7>
 8001e52:	e006      	b.n	8001e62 <LL_GPIO_Init+0xba>
        }
        else
        {
          LL_GPIO_SetAFPin_8_15(GPIOx, currentpin, GPIO_InitStruct->Alternate);
 8001e54:	683b      	ldr	r3, [r7, #0]
 8001e56:	695b      	ldr	r3, [r3, #20]
 8001e58:	461a      	mov	r2, r3
 8001e5a:	69b9      	ldr	r1, [r7, #24]
 8001e5c:	6878      	ldr	r0, [r7, #4]
 8001e5e:	f7ff ff72 	bl	8001d46 <LL_GPIO_SetAFPin_8_15>
        }
      }
      
      /* Pin Mode configuration */
      LL_GPIO_SetPinMode(GPIOx, currentpin, GPIO_InitStruct->Mode);
 8001e62:	683b      	ldr	r3, [r7, #0]
 8001e64:	685b      	ldr	r3, [r3, #4]
 8001e66:	461a      	mov	r2, r3
 8001e68:	69b9      	ldr	r1, [r7, #24]
 8001e6a:	6878      	ldr	r0, [r7, #4]
 8001e6c:	f7ff fe97 	bl	8001b9e <LL_GPIO_SetPinMode>
    }
    pinpos++;
 8001e70:	69fb      	ldr	r3, [r7, #28]
 8001e72:	3301      	adds	r3, #1
 8001e74:	61fb      	str	r3, [r7, #28]
  while (((GPIO_InitStruct->Pin) >> pinpos) != 0x00000000U)
 8001e76:	683b      	ldr	r3, [r7, #0]
 8001e78:	681a      	ldr	r2, [r3, #0]
 8001e7a:	69fb      	ldr	r3, [r7, #28]
 8001e7c:	fa22 f303 	lsr.w	r3, r2, r3
 8001e80:	2b00      	cmp	r3, #0
 8001e82:	d1a7      	bne.n	8001dd4 <LL_GPIO_Init+0x2c>
  }

  return (SUCCESS);
 8001e84:	2300      	movs	r3, #0
}
 8001e86:	4618      	mov	r0, r3
 8001e88:	3720      	adds	r7, #32
 8001e8a:	46bd      	mov	sp, r7
 8001e8c:	bd80      	pop	{r7, pc}
	...

08001e90 <LL_InitTick>:
  *         configuration by calling this function, for a delay use rather osDelay RTOS service.
  * @param  Ticks Number of ticks
  * @retval None
  */
__STATIC_INLINE void LL_InitTick(uint32_t HCLKFrequency, uint32_t Ticks)
{
 8001e90:	b480      	push	{r7}
 8001e92:	b083      	sub	sp, #12
 8001e94:	af00      	add	r7, sp, #0
 8001e96:	6078      	str	r0, [r7, #4]
 8001e98:	6039      	str	r1, [r7, #0]
  /* Configure the SysTick to have interrupt in 1ms time base */
  SysTick->LOAD  = (uint32_t)((HCLKFrequency / Ticks) - 1UL);  /* set reload register */
 8001e9a:	687a      	ldr	r2, [r7, #4]
 8001e9c:	683b      	ldr	r3, [r7, #0]
 8001e9e:	fbb2 f3f3 	udiv	r3, r2, r3
 8001ea2:	4a07      	ldr	r2, [pc, #28]	; (8001ec0 <LL_InitTick+0x30>)
 8001ea4:	3b01      	subs	r3, #1
 8001ea6:	6053      	str	r3, [r2, #4]
  SysTick->VAL   = 0UL;                                       /* Load the SysTick Counter Value */
 8001ea8:	4b05      	ldr	r3, [pc, #20]	; (8001ec0 <LL_InitTick+0x30>)
 8001eaa:	2200      	movs	r2, #0
 8001eac:	609a      	str	r2, [r3, #8]
  SysTick->CTRL  = SysTick_CTRL_CLKSOURCE_Msk |
 8001eae:	4b04      	ldr	r3, [pc, #16]	; (8001ec0 <LL_InitTick+0x30>)
 8001eb0:	2205      	movs	r2, #5
 8001eb2:	601a      	str	r2, [r3, #0]
                   SysTick_CTRL_ENABLE_Msk;                   /* Enable the Systick Timer */
}
 8001eb4:	bf00      	nop
 8001eb6:	370c      	adds	r7, #12
 8001eb8:	46bd      	mov	sp, r7
 8001eba:	f85d 7b04 	ldr.w	r7, [sp], #4
 8001ebe:	4770      	bx	lr
 8001ec0:	e000e010 	.word	0xe000e010

08001ec4 <LL_Init1msTick>:
  * @param  HCLKFrequency HCLK frequency in Hz
  * @note   HCLK frequency can be calculated thanks to RCC helper macro or function @ref LL_RCC_GetSystemClocksFreq
  * @retval None
  */
void LL_Init1msTick(uint32_t HCLKFrequency)
{
 8001ec4:	b580      	push	{r7, lr}
 8001ec6:	b082      	sub	sp, #8
 8001ec8:	af00      	add	r7, sp, #0
 8001eca:	6078      	str	r0, [r7, #4]
  /* Use frequency provided in argument */
  LL_InitTick(HCLKFrequency, 1000U);
 8001ecc:	f44f 717a 	mov.w	r1, #1000	; 0x3e8
 8001ed0:	6878      	ldr	r0, [r7, #4]
 8001ed2:	f7ff ffdd 	bl	8001e90 <LL_InitTick>
}
 8001ed6:	bf00      	nop
 8001ed8:	3708      	adds	r7, #8
 8001eda:	46bd      	mov	sp, r7
 8001edc:	bd80      	pop	{r7, pc}
	...

08001ee0 <LL_mDelay>:
  *         will configure Systick to 1ms
  * @param  Delay specifies the delay time length, in milliseconds.
  * @retval None
  */
void LL_mDelay(uint32_t Delay)
{
 8001ee0:	b480      	push	{r7}
 8001ee2:	b085      	sub	sp, #20
 8001ee4:	af00      	add	r7, sp, #0
 8001ee6:	6078      	str	r0, [r7, #4]
  __IO uint32_t  tmp = SysTick->CTRL;  /* Clear the COUNTFLAG first */
 8001ee8:	4b0f      	ldr	r3, [pc, #60]	; (8001f28 <LL_mDelay+0x48>)
 8001eea:	681b      	ldr	r3, [r3, #0]
 8001eec:	60fb      	str	r3, [r7, #12]
  /* Add this code to indicate that local variable is not used */
  ((void)tmp);
 8001eee:	68fb      	ldr	r3, [r7, #12]

  /* Add a period to guaranty minimum wait */
  if(Delay < LL_MAX_DELAY)
 8001ef0:	687b      	ldr	r3, [r7, #4]
 8001ef2:	f1b3 3fff 	cmp.w	r3, #4294967295
 8001ef6:	d00c      	beq.n	8001f12 <LL_mDelay+0x32>
  {
    Delay++;
 8001ef8:	687b      	ldr	r3, [r7, #4]
 8001efa:	3301      	adds	r3, #1
 8001efc:	607b      	str	r3, [r7, #4]
  }

  while (Delay)
 8001efe:	e008      	b.n	8001f12 <LL_mDelay+0x32>
  {
    if((SysTick->CTRL & SysTick_CTRL_COUNTFLAG_Msk) != 0U)
 8001f00:	4b09      	ldr	r3, [pc, #36]	; (8001f28 <LL_mDelay+0x48>)
 8001f02:	681b      	ldr	r3, [r3, #0]
 8001f04:	f403 3380 	and.w	r3, r3, #65536	; 0x10000
 8001f08:	2b00      	cmp	r3, #0
 8001f0a:	d002      	beq.n	8001f12 <LL_mDelay+0x32>
    {
      Delay--;
 8001f0c:	687b      	ldr	r3, [r7, #4]
 8001f0e:	3b01      	subs	r3, #1
 8001f10:	607b      	str	r3, [r7, #4]
  while (Delay)
 8001f12:	687b      	ldr	r3, [r7, #4]
 8001f14:	2b00      	cmp	r3, #0
 8001f16:	d1f3      	bne.n	8001f00 <LL_mDelay+0x20>
    }
  }
}
 8001f18:	bf00      	nop
 8001f1a:	bf00      	nop
 8001f1c:	3714      	adds	r7, #20
 8001f1e:	46bd      	mov	sp, r7
 8001f20:	f85d 7b04 	ldr.w	r7, [sp], #4
 8001f24:	4770      	bx	lr
 8001f26:	bf00      	nop
 8001f28:	e000e010 	.word	0xe000e010

08001f2c <LL_SetSystemCoreClock>:
  * @note   Variable can be calculated also through SystemCoreClockUpdate function.
  * @param  HCLKFrequency HCLK frequency in Hz (can be calculated thanks to RCC helper macro)
  * @retval None
  */
void LL_SetSystemCoreClock(uint32_t HCLKFrequency)
{
 8001f2c:	b480      	push	{r7}
 8001f2e:	b083      	sub	sp, #12
 8001f30:	af00      	add	r7, sp, #0
 8001f32:	6078      	str	r0, [r7, #4]
  /* HCLK clock frequency */
  SystemCoreClock = HCLKFrequency;
 8001f34:	4a04      	ldr	r2, [pc, #16]	; (8001f48 <LL_SetSystemCoreClock+0x1c>)
 8001f36:	687b      	ldr	r3, [r7, #4]
 8001f38:	6013      	str	r3, [r2, #0]
}
 8001f3a:	bf00      	nop
 8001f3c:	370c      	adds	r7, #12
 8001f3e:	46bd      	mov	sp, r7
 8001f40:	f85d 7b04 	ldr.w	r7, [sp], #4
 8001f44:	4770      	bx	lr
 8001f46:	bf00      	nop
 8001f48:	20000000 	.word	0x20000000

08001f4c <LL_GPIO_SetOutputPin>:
{
 8001f4c:	b480      	push	{r7}
 8001f4e:	b083      	sub	sp, #12
 8001f50:	af00      	add	r7, sp, #0
 8001f52:	6078      	str	r0, [r7, #4]
 8001f54:	6039      	str	r1, [r7, #0]
  WRITE_REG(GPIOx->BSRR, PinMask);
 8001f56:	687b      	ldr	r3, [r7, #4]
 8001f58:	683a      	ldr	r2, [r7, #0]
 8001f5a:	619a      	str	r2, [r3, #24]
}
 8001f5c:	bf00      	nop
 8001f5e:	370c      	adds	r7, #12
 8001f60:	46bd      	mov	sp, r7
 8001f62:	f85d 7b04 	ldr.w	r7, [sp], #4
 8001f66:	4770      	bx	lr

08001f68 <LL_GPIO_ResetOutputPin>:
{
 8001f68:	b480      	push	{r7}
 8001f6a:	b083      	sub	sp, #12
 8001f6c:	af00      	add	r7, sp, #0
 8001f6e:	6078      	str	r0, [r7, #4]
 8001f70:	6039      	str	r1, [r7, #0]
  WRITE_REG(GPIOx->BSRR, (PinMask << 16));
 8001f72:	683b      	ldr	r3, [r7, #0]
 8001f74:	041a      	lsls	r2, r3, #16
 8001f76:	687b      	ldr	r3, [r7, #4]
 8001f78:	619a      	str	r2, [r3, #24]
}
 8001f7a:	bf00      	nop
 8001f7c:	370c      	adds	r7, #12
 8001f7e:	46bd      	mov	sp, r7
 8001f80:	f85d 7b04 	ldr.w	r7, [sp], #4
 8001f84:	4770      	bx	lr

08001f86 <state_run>:
#include "tim.h"

#include "state.h"

void state_run(struct state_machine *led_chain_ptr)
{
 8001f86:	b480      	push	{r7}
 8001f88:	b083      	sub	sp, #12
 8001f8a:	af00      	add	r7, sp, #0
 8001f8c:	6078      	str	r0, [r7, #4]
	while(1){
		if (led_chain_ptr->flag == true) {
 8001f8e:	687b      	ldr	r3, [r7, #4]
 8001f90:	78db      	ldrb	r3, [r3, #3]
 8001f92:	2b00      	cmp	r3, #0
 8001f94:	d100      	bne.n	8001f98 <state_run+0x12>
 8001f96:	e7fa      	b.n	8001f8e <state_run+0x8>
			break;
 8001f98:	bf00      	nop
		}
	}
}
 8001f9a:	bf00      	nop
 8001f9c:	370c      	adds	r7, #12
 8001f9e:	46bd      	mov	sp, r7
 8001fa0:	f85d 7b04 	ldr.w	r7, [sp], #4
 8001fa4:	4770      	bx	lr
	...

08001fa8 <state_top_init>:

void state_top_init(void)
{
 8001fa8:	b580      	push	{r7, lr}
 8001faa:	af00      	add	r7, sp, #0
	LL_GPIO_SetOutputPin(GPIOD, LL_GPIO_PIN_13);
 8001fac:	f44f 5100 	mov.w	r1, #8192	; 0x2000
 8001fb0:	4802      	ldr	r0, [pc, #8]	; (8001fbc <state_top_init+0x14>)
 8001fb2:	f7ff ffcb 	bl	8001f4c <LL_GPIO_SetOutputPin>
}
 8001fb6:	bf00      	nop
 8001fb8:	bd80      	pop	{r7, pc}
 8001fba:	bf00      	nop
 8001fbc:	40020c00 	.word	0x40020c00

08001fc0 <state_top_deinit>:

void state_top_deinit(void)
{
 8001fc0:	b580      	push	{r7, lr}
 8001fc2:	af00      	add	r7, sp, #0
	LL_GPIO_ResetOutputPin(GPIOD, LL_GPIO_PIN_13);
 8001fc4:	f44f 5100 	mov.w	r1, #8192	; 0x2000
 8001fc8:	4802      	ldr	r0, [pc, #8]	; (8001fd4 <state_top_deinit+0x14>)
 8001fca:	f7ff ffcd 	bl	8001f68 <LL_GPIO_ResetOutputPin>
}
 8001fce:	bf00      	nop
 8001fd0:	bd80      	pop	{r7, pc}
 8001fd2:	bf00      	nop
 8001fd4:	40020c00 	.word	0x40020c00

08001fd8 <state_bottom_init>:

void state_bottom_init(void)
{
 8001fd8:	b580      	push	{r7, lr}
 8001fda:	af00      	add	r7, sp, #0
	LL_GPIO_SetOutputPin(GPIOD, LL_GPIO_PIN_15);
 8001fdc:	f44f 4100 	mov.w	r1, #32768	; 0x8000
 8001fe0:	4802      	ldr	r0, [pc, #8]	; (8001fec <state_bottom_init+0x14>)
 8001fe2:	f7ff ffb3 	bl	8001f4c <LL_GPIO_SetOutputPin>
}
 8001fe6:	bf00      	nop
 8001fe8:	bd80      	pop	{r7, pc}
 8001fea:	bf00      	nop
 8001fec:	40020c00 	.word	0x40020c00

08001ff0 <state_bottom_deinit>:

void state_bottom_deinit(void)
{
 8001ff0:	b580      	push	{r7, lr}
 8001ff2:	af00      	add	r7, sp, #0
	LL_GPIO_ResetOutputPin(GPIOD, LL_GPIO_PIN_15);
 8001ff4:	f44f 4100 	mov.w	r1, #32768	; 0x8000
 8001ff8:	4802      	ldr	r0, [pc, #8]	; (8002004 <state_bottom_deinit+0x14>)
 8001ffa:	f7ff ffb5 	bl	8001f68 <LL_GPIO_ResetOutputPin>
}
 8001ffe:	bf00      	nop
 8002000:	bd80      	pop	{r7, pc}
 8002002:	bf00      	nop
 8002004:	40020c00 	.word	0x40020c00

08002008 <state_left_init>:

void state_left_init(void)
{
 8002008:	b580      	push	{r7, lr}
 800200a:	af00      	add	r7, sp, #0
	LL_GPIO_SetOutputPin(GPIOD, LL_GPIO_PIN_12);
 800200c:	f44f 5180 	mov.w	r1, #4096	; 0x1000
 8002010:	4802      	ldr	r0, [pc, #8]	; (800201c <state_left_init+0x14>)
 8002012:	f7ff ff9b 	bl	8001f4c <LL_GPIO_SetOutputPin>
}
 8002016:	bf00      	nop
 8002018:	bd80      	pop	{r7, pc}
 800201a:	bf00      	nop
 800201c:	40020c00 	.word	0x40020c00

08002020 <state_left_deinit>:

void state_left_deinit(void)
{
 8002020:	b580      	push	{r7, lr}
 8002022:	af00      	add	r7, sp, #0
	LL_GPIO_ResetOutputPin(GPIOD, LL_GPIO_PIN_12);
 8002024:	f44f 5180 	mov.w	r1, #4096	; 0x1000
 8002028:	4802      	ldr	r0, [pc, #8]	; (8002034 <state_left_deinit+0x14>)
 800202a:	f7ff ff9d 	bl	8001f68 <LL_GPIO_ResetOutputPin>
}
 800202e:	bf00      	nop
 8002030:	bd80      	pop	{r7, pc}
 8002032:	bf00      	nop
 8002034:	40020c00 	.word	0x40020c00

08002038 <state_right_init>:

void state_right_init(void)
{
 8002038:	b580      	push	{r7, lr}
 800203a:	af00      	add	r7, sp, #0
	LL_GPIO_SetOutputPin(GPIOD, LL_GPIO_PIN_14);
 800203c:	f44f 4180 	mov.w	r1, #16384	; 0x4000
 8002040:	4802      	ldr	r0, [pc, #8]	; (800204c <state_right_init+0x14>)
 8002042:	f7ff ff83 	bl	8001f4c <LL_GPIO_SetOutputPin>
}
 8002046:	bf00      	nop
 8002048:	bd80      	pop	{r7, pc}
 800204a:	bf00      	nop
 800204c:	40020c00 	.word	0x40020c00

08002050 <state_right_deinit>:

void state_right_deinit(void)
{
 8002050:	b580      	push	{r7, lr}
 8002052:	af00      	add	r7, sp, #0
	LL_GPIO_ResetOutputPin(GPIOD, LL_GPIO_PIN_14);
 8002054:	f44f 4180 	mov.w	r1, #16384	; 0x4000
 8002058:	4802      	ldr	r0, [pc, #8]	; (8002064 <state_right_deinit+0x14>)
 800205a:	f7ff ff85 	bl	8001f68 <LL_GPIO_ResetOutputPin>
}
 800205e:	bf00      	nop
 8002060:	bd80      	pop	{r7, pc}
 8002062:	bf00      	nop
 8002064:	40020c00 	.word	0x40020c00

08002068 <state_top_check>:

bool state_top_check(struct state_machine led_chain)
{
 8002068:	b480      	push	{r7}
 800206a:	b083      	sub	sp, #12
 800206c:	af00      	add	r7, sp, #0
 800206e:	6078      	str	r0, [r7, #4]
	return ((STATE_CURRENT_0) || (STATE_PREVIOUS_2) || (STATE_PREVIOUS_3));
 8002070:	797b      	ldrb	r3, [r7, #5]
 8002072:	2b00      	cmp	r3, #0
 8002074:	d005      	beq.n	8002082 <state_top_check+0x1a>
 8002076:	793b      	ldrb	r3, [r7, #4]
 8002078:	2b02      	cmp	r3, #2
 800207a:	d002      	beq.n	8002082 <state_top_check+0x1a>
 800207c:	793b      	ldrb	r3, [r7, #4]
 800207e:	2b03      	cmp	r3, #3
 8002080:	d101      	bne.n	8002086 <state_top_check+0x1e>
 8002082:	2301      	movs	r3, #1
 8002084:	e000      	b.n	8002088 <state_top_check+0x20>
 8002086:	2300      	movs	r3, #0
 8002088:	f003 0301 	and.w	r3, r3, #1
 800208c:	b2db      	uxtb	r3, r3
}
 800208e:	4618      	mov	r0, r3
 8002090:	370c      	adds	r7, #12
 8002092:	46bd      	mov	sp, r7
 8002094:	f85d 7b04 	ldr.w	r7, [sp], #4
 8002098:	4770      	bx	lr

0800209a <state_bottom_check>:

bool state_bottom_check(struct state_machine led_chain)
{
 800209a:	b480      	push	{r7}
 800209c:	b083      	sub	sp, #12
 800209e:	af00      	add	r7, sp, #0
 80020a0:	6078      	str	r0, [r7, #4]
	return ((STATE_CURRENT_1) && (STATE_PREVIOUS_0));
 80020a2:	797b      	ldrb	r3, [r7, #5]
 80020a4:	2b01      	cmp	r3, #1
 80020a6:	d104      	bne.n	80020b2 <state_bottom_check+0x18>
 80020a8:	793b      	ldrb	r3, [r7, #4]
 80020aa:	2b00      	cmp	r3, #0
 80020ac:	d101      	bne.n	80020b2 <state_bottom_check+0x18>
 80020ae:	2301      	movs	r3, #1
 80020b0:	e000      	b.n	80020b4 <state_bottom_check+0x1a>
 80020b2:	2300      	movs	r3, #0
 80020b4:	f003 0301 	and.w	r3, r3, #1
 80020b8:	b2db      	uxtb	r3, r3
}
 80020ba:	4618      	mov	r0, r3
 80020bc:	370c      	adds	r7, #12
 80020be:	46bd      	mov	sp, r7
 80020c0:	f85d 7b04 	ldr.w	r7, [sp], #4
 80020c4:	4770      	bx	lr

080020c6 <state_right_check>:

bool state_right_check(struct state_machine led_chain)
{
 80020c6:	b480      	push	{r7}
 80020c8:	b083      	sub	sp, #12
 80020ca:	af00      	add	r7, sp, #0
 80020cc:	6078      	str	r0, [r7, #4]
	return ((STATE_PREVIOUS_1) || (STATE_CURRENT_2));
 80020ce:	793b      	ldrb	r3, [r7, #4]
 80020d0:	2b01      	cmp	r3, #1
 80020d2:	d002      	beq.n	80020da <state_right_check+0x14>
 80020d4:	797b      	ldrb	r3, [r7, #5]
 80020d6:	2b02      	cmp	r3, #2
 80020d8:	d101      	bne.n	80020de <state_right_check+0x18>
 80020da:	2301      	movs	r3, #1
 80020dc:	e000      	b.n	80020e0 <state_right_check+0x1a>
 80020de:	2300      	movs	r3, #0
 80020e0:	f003 0301 	and.w	r3, r3, #1
 80020e4:	b2db      	uxtb	r3, r3
}
 80020e6:	4618      	mov	r0, r3
 80020e8:	370c      	adds	r7, #12
 80020ea:	46bd      	mov	sp, r7
 80020ec:	f85d 7b04 	ldr.w	r7, [sp], #4
 80020f0:	4770      	bx	lr

080020f2 <state_left_check>:

bool state_left_check(struct state_machine led_chain)
{
 80020f2:	b480      	push	{r7}
 80020f4:	b083      	sub	sp, #12
 80020f6:	af00      	add	r7, sp, #0
 80020f8:	6078      	str	r0, [r7, #4]
	return ((STATE_CURRENT_3) && (STATE_PREVIOUS_0));
 80020fa:	797b      	ldrb	r3, [r7, #5]
 80020fc:	2b03      	cmp	r3, #3
 80020fe:	d104      	bne.n	800210a <state_left_check+0x18>
 8002100:	793b      	ldrb	r3, [r7, #4]
 8002102:	2b00      	cmp	r3, #0
 8002104:	d101      	bne.n	800210a <state_left_check+0x18>
 8002106:	2301      	movs	r3, #1
 8002108:	e000      	b.n	800210c <state_left_check+0x1a>
 800210a:	2300      	movs	r3, #0
 800210c:	f003 0301 	and.w	r3, r3, #1
 8002110:	b2db      	uxtb	r3, r3
}
 8002112:	4618      	mov	r0, r3
 8002114:	370c      	adds	r7, #12
 8002116:	46bd      	mov	sp, r7
 8002118:	f85d 7b04 	ldr.w	r7, [sp], #4
 800211c:	4770      	bx	lr

0800211e <state_flag_reset>:

void state_flag_reset(struct state_machine *led_chain_ptr)
{
 800211e:	b480      	push	{r7}
 8002120:	b083      	sub	sp, #12
 8002122:	af00      	add	r7, sp, #0
 8002124:	6078      	str	r0, [r7, #4]
	led_chain_ptr->flag = false;
 8002126:	687b      	ldr	r3, [r7, #4]
 8002128:	2200      	movs	r2, #0
 800212a:	70da      	strb	r2, [r3, #3]
}
 800212c:	bf00      	nop
 800212e:	370c      	adds	r7, #12
 8002130:	46bd      	mov	sp, r7
 8002132:	f85d 7b04 	ldr.w	r7, [sp], #4
 8002136:	4770      	bx	lr

08002138 <__libc_init_array>:
 8002138:	b570      	push	{r4, r5, r6, lr}
 800213a:	4d0d      	ldr	r5, [pc, #52]	; (8002170 <__libc_init_array+0x38>)
 800213c:	4c0d      	ldr	r4, [pc, #52]	; (8002174 <__libc_init_array+0x3c>)
 800213e:	1b64      	subs	r4, r4, r5
 8002140:	10a4      	asrs	r4, r4, #2
 8002142:	2600      	movs	r6, #0
 8002144:	42a6      	cmp	r6, r4
 8002146:	d109      	bne.n	800215c <__libc_init_array+0x24>
 8002148:	4d0b      	ldr	r5, [pc, #44]	; (8002178 <__libc_init_array+0x40>)
 800214a:	4c0c      	ldr	r4, [pc, #48]	; (800217c <__libc_init_array+0x44>)
 800214c:	f000 f818 	bl	8002180 <_init>
 8002150:	1b64      	subs	r4, r4, r5
 8002152:	10a4      	asrs	r4, r4, #2
 8002154:	2600      	movs	r6, #0
 8002156:	42a6      	cmp	r6, r4
 8002158:	d105      	bne.n	8002166 <__libc_init_array+0x2e>
 800215a:	bd70      	pop	{r4, r5, r6, pc}
 800215c:	f855 3b04 	ldr.w	r3, [r5], #4
 8002160:	4798      	blx	r3
 8002162:	3601      	adds	r6, #1
 8002164:	e7ee      	b.n	8002144 <__libc_init_array+0xc>
 8002166:	f855 3b04 	ldr.w	r3, [r5], #4
 800216a:	4798      	blx	r3
 800216c:	3601      	adds	r6, #1
 800216e:	e7f2      	b.n	8002156 <__libc_init_array+0x1e>
 8002170:	08002198 	.word	0x08002198
 8002174:	08002198 	.word	0x08002198
 8002178:	08002198 	.word	0x08002198
 800217c:	0800219c 	.word	0x0800219c

08002180 <_init>:
 8002180:	b5f8      	push	{r3, r4, r5, r6, r7, lr}
 8002182:	bf00      	nop
 8002184:	bcf8      	pop	{r3, r4, r5, r6, r7}
 8002186:	bc08      	pop	{r3}
 8002188:	469e      	mov	lr, r3
 800218a:	4770      	bx	lr

0800218c <_fini>:
 800218c:	b5f8      	push	{r3, r4, r5, r6, r7, lr}
 800218e:	bf00      	nop
 8002190:	bcf8      	pop	{r3, r4, r5, r6, r7}
 8002192:	bc08      	pop	{r3}
 8002194:	469e      	mov	lr, r3
 8002196:	4770      	bx	lr
